Modules list:
-------------
hcat.o:
    CODE              Offs=000000  Size=0011BF  Align=00001  Fill=0000
    RODATA            Offs=000000  Size=000226  Align=00001  Fill=0000
    BSS               Offs=000000  Size=0002E0  Align=00001  Fill=0000
    DATA              Offs=000000  Size=000002  Align=00001  Fill=0000
/usr/share/cc65/lib/apple2.lib(_directerrno.o):
    CODE              Offs=0011BF  Size=00000A  Align=00001  Fill=0000
/usr/share/cc65/lib/apple2.lib(_fdesc.o):
    CODE              Offs=0011C9  Size=00001D  Align=00001  Fill=0000
/usr/share/cc65/lib/apple2.lib(_file.o):
    DATA              Offs=000002  Size=00001E  Align=00001  Fill=0000
/usr/share/cc65/lib/apple2.lib(_fopen.o):
    CODE              Offs=0011E6  Size=00007B  Align=00001  Fill=0000
    BSS               Offs=0002E0  Size=000002  Align=00001  Fill=0000
/usr/share/cc65/lib/apple2.lib(_heap.o):
    DATA              Offs=000020  Size=00000A  Align=00001  Fill=0000
    ONCE              Offs=000000  Size=000010  Align=00001  Fill=0000
/usr/share/cc65/lib/apple2.lib(_mappederrno.o):
    CODE              Offs=001261  Size=000010  Align=00001  Fill=0000
/usr/share/cc65/lib/apple2.lib(_oserror.o):
    BSS               Offs=0002E2  Size=000001  Align=00001  Fill=0000
/usr/share/cc65/lib/apple2.lib(_seterrno.o):
    CODE              Offs=001271  Size=000009  Align=00001  Fill=0000
/usr/share/cc65/lib/apple2.lib(add.o):
    CODE              Offs=00127A  Size=00001C  Align=00001  Fill=0000
/usr/share/cc65/lib/apple2.lib(addeqsp.o):
    CODE              Offs=001296  Size=000011  Align=00001  Fill=0000
/usr/share/cc65/lib/apple2.lib(addysp.o):
    CODE              Offs=0012A7  Size=00000E  Align=00001  Fill=0000
/usr/share/cc65/lib/apple2.lib(and.o):
    CODE              Offs=0012B5  Size=000010  Align=00001  Fill=0000
/usr/share/cc65/lib/apple2.lib(aslax1.o):
    CODE              Offs=0012C5  Size=000008  Align=00001  Fill=0000
/usr/share/cc65/lib/apple2.lib(asleax2.o):
    CODE              Offs=0012CD  Size=000013  Align=00001  Fill=0000
/usr/share/cc65/lib/apple2.lib(asleax4.o):
    CODE              Offs=0012E0  Size=000011  Align=00001  Fill=0000
/usr/share/cc65/lib/apple2.lib(axlong.o):
    CODE              Offs=0012F1  Size=00000D  Align=00001  Fill=0000
/usr/share/cc65/lib/apple2.lib(bneg.o):
    CODE              Offs=0012FE  Size=00000E  Align=00001  Fill=0000
/usr/share/cc65/lib/apple2.lib(callmain.o):
    CODE              Offs=00130C  Size=000017  Align=00001  Fill=0000
    DATA              Offs=00002A  Size=000004  Align=00001  Fill=0000
/usr/share/cc65/lib/apple2.lib(close.o):
    CODE              Offs=001323  Size=00001C  Align=00001  Fill=0000
/usr/share/cc65/lib/apple2.lib(compl.o):
    CODE              Offs=00133F  Size=000009  Align=00001  Fill=0000
/usr/share/cc65/lib/apple2.lib(condes.o):
    CODE              Offs=001348  Size=00000C  Align=00001  Fill=0000
    DATA              Offs=00002E  Size=000025  Align=00001  Fill=0000
    ONCE              Offs=000010  Size=00000C  Align=00001  Fill=0000
/usr/share/cc65/lib/apple2.lib(cout.o):
    LOWCODE           Offs=000000  Size=00000A  Align=00001  Fill=0000
/usr/share/cc65/lib/apple2.lib(cputc.o):
    CODE              Offs=001354  Size=000043  Align=00001  Fill=0000
/usr/share/cc65/lib/apple2.lib(cputs.o):
    CODE              Offs=001397  Size=000023  Align=00001  Fill=0000
/usr/share/cc65/lib/apple2.lib(crt0.o):
    CODE              Offs=0013BA  Size=000012  Align=00001  Fill=0000
    RODATA            Offs=000226  Size=000007  Align=00001  Fill=0000
    DATA              Offs=000053  Size=000003  Align=00001  Fill=0000
    STARTUP           Offs=000000  Size=000034  Align=00001  Fill=0000
    ONCE              Offs=00001C  Size=00006A  Align=00001  Fill=0000
    INIT              Offs=000000  Size=00001D  Align=00001  Fill=0000
/usr/share/cc65/lib/apple2.lib(decax1.o):
    CODE              Offs=0013CC  Size=000007  Align=00001  Fill=0000
/usr/share/cc65/lib/apple2.lib(decax4.o):
    CODE              Offs=0013D3  Size=000007  Align=00001  Fill=0000
/usr/share/cc65/lib/apple2.lib(decsp1.o):
    CODE              Offs=0013DA  Size=000009  Align=00001  Fill=0000
/usr/share/cc65/lib/apple2.lib(decsp2.o):
    CODE              Offs=0013E3  Size=00000D  Align=00001  Fill=0000
/usr/share/cc65/lib/apple2.lib(decsp3.o):
    CODE              Offs=0013F0  Size=00000D  Align=00001  Fill=0000
/usr/share/cc65/lib/apple2.lib(decsp4.o):
    CODE              Offs=0013FD  Size=00000D  Align=00001  Fill=0000
/usr/share/cc65/lib/apple2.lib(decsp6.o):
    CODE              Offs=00140A  Size=00000D  Align=00001  Fill=0000
/usr/share/cc65/lib/apple2.lib(decsp8.o):
    CODE              Offs=001417  Size=00000D  Align=00001  Fill=0000
/usr/share/cc65/lib/apple2.lib(dosdetect.o):
    DATA              Offs=000056  Size=000001  Align=00001  Fill=0000
    ONCE              Offs=000086  Size=000014  Align=00001  Fill=0000
/usr/share/cc65/lib/apple2.lib(eq.o):
    CODE              Offs=001424  Size=00000A  Align=00001  Fill=0000
/usr/share/cc65/lib/apple2.lib(errno.o):
    BSS               Offs=0002E3  Size=000002  Align=00001  Fill=0000
/usr/share/cc65/lib/apple2.lib(exehdr.o):
    EXEHDR            Offs=000000  Size=00003A  Align=00001  Fill=0000
/usr/share/cc65/lib/apple2.lib(fclose.o):
    CODE              Offs=00142E  Size=000022  Align=00001  Fill=0000
/usr/share/cc65/lib/apple2.lib(fgetc.o):
    CODE              Offs=001450  Size=00008C  Align=00001  Fill=0000
/usr/share/cc65/lib/apple2.lib(fgets.o):
    CODE              Offs=0014DC  Size=0000B3  Align=00001  Fill=0000
/usr/share/cc65/lib/apple2.lib(filedes.o):
    CODE              Offs=00158F  Size=000016  Align=00001  Fill=0000
    DATA              Offs=000057  Size=000020  Align=00001  Fill=0000
/usr/share/cc65/lib/apple2.lib(filename.o):
    CODE              Offs=0015A5  Size=00006C  Align=00001  Fill=0000
/usr/share/cc65/lib/apple2.lib(fmisc.o):
    CODE              Offs=001611  Size=000044  Align=00001  Fill=0000
/usr/share/cc65/lib/apple2.lib(fopen.o):
    CODE              Offs=001655  Size=000018  Align=00001  Fill=0000
/usr/share/cc65/lib/apple2.lib(fputc.o):
    CODE              Offs=00166D  Size=000057  Align=00001  Fill=0000
    RODATA            Offs=00022D  Size=000002  Align=00001  Fill=0000
/usr/share/cc65/lib/apple2.lib(fputs.o):
    CODE              Offs=0016C4  Size=000044  Align=00001  Fill=0000
/usr/share/cc65/lib/apple2.lib(free.o):
    CODE              Offs=001708  Size=0001D3  Align=00001  Fill=0000
/usr/share/cc65/lib/apple2.lib(gotoxy.o):
    CODE              Offs=0018DB  Size=000011  Align=00001  Fill=0000
/usr/share/cc65/lib/apple2.lib(icmp.o):
    CODE              Offs=0018EC  Size=00002E  Align=00001  Fill=0000
/usr/share/cc65/lib/apple2.lib(incax1.o):
    CODE              Offs=00191A  Size=000007  Align=00001  Fill=0000
/usr/share/cc65/lib/apple2.lib(incaxy.o):
    CODE              Offs=001921  Size=00000B  Align=00001  Fill=0000
/usr/share/cc65/lib/apple2.lib(incsp1.o):
    CODE              Offs=00192C  Size=000007  Align=00001  Fill=0000
/usr/share/cc65/lib/apple2.lib(incsp2.o):
    CODE              Offs=001933  Size=000016  Align=00001  Fill=0000
/usr/share/cc65/lib/apple2.lib(incsp3.o):
    CODE              Offs=001949  Size=000005  Align=00001  Fill=0000
/usr/share/cc65/lib/apple2.lib(incsp4.o):
    CODE              Offs=00194E  Size=000005  Align=00001  Fill=0000
/usr/share/cc65/lib/apple2.lib(incsp5.o):
    CODE              Offs=001953  Size=000005  Align=00001  Fill=0000
/usr/share/cc65/lib/apple2.lib(incsp6.o):
    CODE              Offs=001958  Size=000005  Align=00001  Fill=0000
/usr/share/cc65/lib/apple2.lib(incsp8.o):
    CODE              Offs=00195D  Size=000005  Align=00001  Fill=0000
/usr/share/cc65/lib/apple2.lib(iobuf.o):
/usr/share/cc65/lib/apple2.lib(lcmp.o):
    CODE              Offs=001962  Size=00003B  Align=00001  Fill=0000
/usr/share/cc65/lib/apple2.lib(ldaui.o):
    CODE              Offs=00199D  Size=000009  Align=00001  Fill=0000
/usr/share/cc65/lib/apple2.lib(ldaxi.o):
    CODE              Offs=0019A6  Size=00000D  Align=00001  Fill=0000
/usr/share/cc65/lib/apple2.lib(ldaxsp.o):
    CODE              Offs=0019B3  Size=000009  Align=00001  Fill=0000
/usr/share/cc65/lib/apple2.lib(ldeaxysp.o):
    CODE              Offs=0019BC  Size=000013  Align=00001  Fill=0000
/usr/share/cc65/lib/apple2.lib(leaaxsp.o):
    CODE              Offs=0019CF  Size=00000C  Align=00001  Fill=0000
/usr/share/cc65/lib/apple2.lib(leq.o):
    CODE              Offs=0019DB  Size=000006  Align=00001  Fill=0000
/usr/share/cc65/lib/apple2.lib(lor.o):
    CODE              Offs=0019E1  Size=000024  Align=00001  Fill=0000
/usr/share/cc65/lib/apple2.lib(lpush.o):
    CODE              Offs=001A05  Size=000021  Align=00001  Fill=0000
/usr/share/cc65/lib/apple2.lib(lsub.o):
    CODE              Offs=001A26  Size=000027  Align=00001  Fill=0000
/usr/share/cc65/lib/apple2.lib(lule.o):
    CODE              Offs=001A4D  Size=000006  Align=00001  Fill=0000
/usr/share/cc65/lib/apple2.lib(makebool.o):
    CODE              Offs=001A53  Size=00002C  Align=00001  Fill=0000
/usr/share/cc65/lib/apple2.lib(malloc.o):
    CODE              Offs=001A7F  Size=00010E  Align=00001  Fill=0000
/usr/share/cc65/lib/apple2.lib(mli.o):
    BSS               Offs=0002E5  Size=000012  Align=00001  Fill=0000
    DATA              Offs=000077  Size=000024  Align=00001  Fill=0000
/usr/share/cc65/lib/apple2.lib(mul.o):
    CODE              Offs=001B8D  Size=000045  Align=00001  Fill=0000
/usr/share/cc65/lib/apple2.lib(mul8.o):
    CODE              Offs=001BD2  Size=00003A  Align=00001  Fill=0000
/usr/share/cc65/lib/apple2.lib(mulax3.o):
    CODE              Offs=001C0C  Size=000011  Align=00001  Fill=0000
/usr/share/cc65/lib/apple2.lib(open.o):
    CODE              Offs=001C1D  Size=0000F9  Align=00001  Fill=0000
    DATA              Offs=00009B  Size=000009  Align=00001  Fill=0000
    ONCE              Offs=00009A  Size=000009  Align=00001  Fill=0000
/usr/share/cc65/lib/apple2.lib(oserror.o):
    CODE              Offs=001D16  Size=000016  Align=00001  Fill=0000
    RODATA            Offs=00022F  Size=000032  Align=00001  Fill=0000
/usr/share/cc65/lib/apple2.lib(pmemalign.o):
    CODE              Offs=001D2C  Size=000202  Align=00001  Fill=0000
/usr/share/cc65/lib/apple2.lib(popa.o):
    CODE              Offs=001F2E  Size=00000C  Align=00001  Fill=0000
/usr/share/cc65/lib/apple2.lib(popptr1.o):
    CODE              Offs=001F3A  Size=00000E  Align=00001  Fill=0000
/usr/share/cc65/lib/apple2.lib(pusha.o):
    CODE              Offs=001F48  Size=000016  Align=00001  Fill=0000
/usr/share/cc65/lib/apple2.lib(pushax.o):
    CODE              Offs=001F5E  Size=00001A  Align=00001  Fill=0000
/usr/share/cc65/lib/apple2.lib(pushwsp.o):
    CODE              Offs=001F78  Size=00001C  Align=00001  Fill=0000
/usr/share/cc65/lib/apple2.lib(rdkey.o):
    LOWCODE           Offs=00000A  Size=00000A  Align=00001  Fill=0000
/usr/share/cc65/lib/apple2.lib(read.o):
    CODE              Offs=001F94  Size=00005A  Align=00001  Fill=0000
    ONCE              Offs=0000A3  Size=000005  Align=00001  Fill=0000
/usr/share/cc65/lib/apple2.lib(regswap2.o):
    CODE              Offs=001FEE  Size=000016  Align=00001  Fill=0000
/usr/share/cc65/lib/apple2.lib(return0.o):
    CODE              Offs=002004  Size=000004  Align=00001  Fill=0000
/usr/share/cc65/lib/apple2.lib(rwcommon.o):
    CODE              Offs=002008  Size=00003D  Align=00001  Fill=0000
/usr/share/cc65/lib/apple2.lib(staspidx.o):
    CODE              Offs=002045  Size=000016  Align=00001  Fill=0000
/usr/share/cc65/lib/apple2.lib(staxsp.o):
    CODE              Offs=00205B  Size=00000B  Align=00001  Fill=0000
/usr/share/cc65/lib/apple2.lib(staxspi.o):
    CODE              Offs=002066  Size=00001B  Align=00001  Fill=0000
/usr/share/cc65/lib/apple2.lib(steaxsp.o):
    CODE              Offs=002081  Size=000015  Align=00001  Fill=0000
/usr/share/cc65/lib/apple2.lib(steaxspi.o):
    CODE              Offs=002096  Size=000022  Align=00001  Fill=0000
/usr/share/cc65/lib/apple2.lib(strchr.o):
    CODE              Offs=0020B8  Size=000027  Align=00001  Fill=0000
/usr/share/cc65/lib/apple2.lib(strlen.o):
    CODE              Offs=0020DF  Size=000016  Align=00001  Fill=0000
/usr/share/cc65/lib/apple2.lib(strncpy.o):
    CODE              Offs=0020F5  Size=000044  Align=00001  Fill=0000
/usr/share/cc65/lib/apple2.lib(sub.o):
    CODE              Offs=002139  Size=000015  Align=00001  Fill=0000
/usr/share/cc65/lib/apple2.lib(subeqsp.o):
    CODE              Offs=00214E  Size=000015  Align=00001  Fill=0000
/usr/share/cc65/lib/apple2.lib(subysp.o):
    CODE              Offs=002163  Size=00000D  Align=00001  Fill=0000
/usr/share/cc65/lib/apple2.lib(toslong.o):
    CODE              Offs=002170  Size=000038  Align=00001  Fill=0000
/usr/share/cc65/lib/apple2.lib(uge.o):
    CODE              Offs=0021A8  Size=00000A  Align=00001  Fill=0000
/usr/share/cc65/lib/apple2.lib(ult.o):
    CODE              Offs=0021B2  Size=000008  Align=00001  Fill=0000
/usr/share/cc65/lib/apple2.lib(vtabz.o):
    LOWCODE           Offs=000014  Size=00000A  Align=00001  Fill=0000
/usr/share/cc65/lib/apple2.lib(write.o):
    CODE              Offs=0021BA  Size=000070  Align=00001  Fill=0000
/usr/share/cc65/lib/apple2.lib(zerobss.o):
    CODE              Offs=00222A  Size=000023  Align=00001  Fill=0000
/usr/share/cc65/lib/apple2.lib(zeropage.o):
    ZEROPAGE          Offs=000000  Size=00001A  Align=00001  Fill=0000


Segment list:
-------------
Name                   Start     End    Size  Align
----------------------------------------------------
ZEROPAGE              000080  000099  00001A  00001
EXEHDR                0007C9  000802  00003A  00001
STARTUP               000803  000836  000034  00001
LOWCODE               000837  000854  00001E  00001
CODE                  000855  002AA1  00224D  00001
RODATA                002AA2  002D04  000263  00001
DATA                  002D05  002DA8  0000A4  00001
INIT                  002DA9  002DC5  00001D  00001
BSS                   002DC6  0030BC  0002F7  00001
ONCE                  002DC6  002E75  0000B0  00001


Exports list by name:
---------------------
COUT                      000837 RLA    RDKEY                     000841 RLA    
VTABZ                     00084B RLA    __BSS_RUN__               002DC6 RLA    
__BSS_SIZE__              0002F7 REA    __CONSTRUCTOR_COUNT__     000004 REA    
__CONSTRUCTOR_TABLE__     002E6E RLA    __DESTRUCTOR_COUNT__      000001 REA    
__DESTRUCTOR_TABLE__      002D03 RLA    __EXEHDR__                000001 REA    
__FILETYPE__              000006 REA    __HIMEM__                 009600 REA    
__LCADDR__                00D400 REA    __LCSIZE__                000C00 REA    
__LC_LAST__               00D400 RLA    __LC_START__              00D400 RLA    
__MAIN_LAST__             002E76 RLA    __MAIN_START__            000803 RLA    
__ONCE_LOAD__             002DC6 RLA    __ONCE_RUN__              002DC6 RLA    
__ONCE_SIZE__             0000B0 REA    __STACKSIZE__             000800 REA    
__STARTUP__               000001 REA    __directerrno             001A14 RLA    
__dos_type                002D5B RLA    __errno                   0030A9 RLA    
__fdesc                   001A1E RLA    __filetab                 002D07 RLA    
__fopen                   001A3B RLA    __heapend                 002D29 RLA    
__heapfirst               002D2B RLA    __heaplast                002D2D RLA    
__heapptr                 002D27 RLA    __mappederrno             001AB6 RLA    
__oserror                 0030A8 RLA    __osmaperrno              00256B RLA    
__seterrno                001AC6 RLA    _close                    001B78 RLA    
_cputc                    001BAE RLA    _cputs                    001BF6 RLA    
_fclose                   001C83 RLA    _fflush                   002859 REA    
_fgetc                    001CA5 RLA    _fgets                    001D31 RLA    
_fopen                    001EAA RLA    _fputc                    001EC2 RLA    
_fputs                    001F19 RLA    _free                     001F5D RLA    
_main                     001912 RLA    _malloc                   0022D4 RLA    
_open                     002472 RLA    _posix_memalign           002581 RLA    
_read                     0027E9 RLA    _stdin                    002D1F RLA    
_stdout                   002D21 RLA    _strchr                   00290D RLA    
_strlen                   002934 RLA    _strncpy                  00294A RLA    
_write                    002A0F RLA    addeqysp                  001AED RLA    
addysp                    001AFD RLA    addysp1                   001AFC RLA    
aslax1                    001B1A RLA    axulong                   001B4C RLA    
bnegax                    001B53 RLA    booleq                    0022AE RLA    
boolne                    0022A8 RLA    booluge                   0022CF RLA    
boolule                   0022C5 RLA    boolult                   0022C7 RLA    
callmain                  001B61 RLA    callmli                   002D7C RLA    
closeallfiles             00255D  LAI   closedirect               002553 RLA    
complax                   001B94 RLA    decax1                    001C21 RLA    
decax4                    001C28 RLA    decsp1                    001C2F RLA    
decsp2                    001C38 RLA    decsp3                    001C45 RLA    
decsp4                    001C52 RLA    decsp6                    001C5F RLA    
decsp8                    001C6C RLA    donelib                   001B9D RLA    
fdtab                     002D5C RLA    freebuffer                00254B RLA    
getfd                     001DE4 RLA    gotoxy                    002130 RLA    
incax1                    00216F RLA    incax4                    002176 RLA    
incaxy                    002178 RLA    incsp1                    002181 RLA    
incsp2                    002190 RLA    incsp3                    00219E RLA    
incsp4                    0021A3 RLA    incsp5                    0021A8 RLA    
incsp6                    0021AD RLA    incsp8                    0021B2 RLA    
initdostype               002E4C  LAI   initheap                  002DC6  LAI   
initlib                   002DD6 RLA    initprompt                002E69  LAI   
iobuf_alloc               002581 RLA    iobuf_free                001F5D RLA    
ldauidx                   0021F2 RLA    ldaxidx                   0021FD RLA    
ldaxysp                   00220A RLA    ldeaxysp                  002213 RLA    
leaa0sp                   002224 RLA    mliparam                  0030AB RLA    
mul8x16                   002429 RLA    mul8x16a                  002433 RLA    
mulax3                    002461 RLA    popa                      002783 RLA    
popax                     002188 RLA    popname                   001E61 RLA    
popptr1                   00278F RLA    ptr1                      000088 RLZ    
ptr2                      00008A RLZ    ptr3                      00008C RLZ    
ptr4                      00008E RLZ    pusha                     0027A1 RLA    
pusha0                    0027B5 RLA    pushax                    0027B7 RLA    
pusheax                   002263 RLA    pushname                  001DFA RLA    
pushwysp                  0027CF RLA    raisefilelevel            002E60  LAI   
regbank                   000094 RLZ    regsave                   000084 RLZ    
regswap2                  002843 RLA    return0                   002859 RLA    
rwcommon                  00286A RLA    rwepilog                  00288D RLA    
rwprolog                  00285D RLA    shleax2                   001B22 RLA    
shleax4                   001B35 RLA    sp                        000080 RLZ    
sreg                      000082 RLZ    staspidx                  00289A RLA    
stax0sp                   0028B0 RLA    staxspidx                 0028BB RLA    
staxysp                   0028B2 RLA    steaxspidx                0028EB RLA    
steaxysp                  0028D8 RLA    subeqysp                  0029A5 RLA    
subysp                    0029B8 RLA    tmp1                      000090 RLZ    
tmp2                      000091 RLZ    tmp3                      000092 RLZ    
tosaddax                  001AD1 RLA    tosandax                  001B0C RLA    
toseqax                   001C7D RLA    toseqeax                  002230 RLA    
tosicmp                   002143 RLA    toslcmp                   0021B7 RLA    
tosoreax                  00223C RLA    tossubax                  002990 RLA    
tossubeax                 002281 RLA    tosugeax                  002A01 RLA    
tosuleeax                 0022A2 RLA    tosulong                  0029C5 RLA    
tosultax                  002A09 RLA    tosumulax                 0023E2 RLA    
zerobss                   002A7F RLA    


Exports list by value:
----------------------
__DESTRUCTOR_COUNT__      000001 REA    __EXEHDR__                000001 REA    
__STARTUP__               000001 REA    __CONSTRUCTOR_COUNT__     000004 REA    
__FILETYPE__              000006 REA    sp                        000080 RLZ    
sreg                      000082 RLZ    regsave                   000084 RLZ    
ptr1                      000088 RLZ    ptr2                      00008A RLZ    
ptr3                      00008C RLZ    ptr4                      00008E RLZ    
tmp1                      000090 RLZ    tmp2                      000091 RLZ    
tmp3                      000092 RLZ    regbank                   000094 RLZ    
__ONCE_SIZE__             0000B0 REA    __BSS_SIZE__              0002F7 REA    
__STACKSIZE__             000800 REA    __MAIN_START__            000803 RLA    
COUT                      000837 RLA    RDKEY                     000841 RLA    
VTABZ                     00084B RLA    __LCSIZE__                000C00 REA    
_main                     001912 RLA    __directerrno             001A14 RLA    
__fdesc                   001A1E RLA    __fopen                   001A3B RLA    
__mappederrno             001AB6 RLA    __seterrno                001AC6 RLA    
tosaddax                  001AD1 RLA    addeqysp                  001AED RLA    
addysp1                   001AFC RLA    addysp                    001AFD RLA    
tosandax                  001B0C RLA    aslax1                    001B1A RLA    
shleax2                   001B22 RLA    shleax4                   001B35 RLA    
axulong                   001B4C RLA    bnegax                    001B53 RLA    
callmain                  001B61 RLA    _close                    001B78 RLA    
complax                   001B94 RLA    donelib                   001B9D RLA    
_cputc                    001BAE RLA    _cputs                    001BF6 RLA    
decax1                    001C21 RLA    decax4                    001C28 RLA    
decsp1                    001C2F RLA    decsp2                    001C38 RLA    
decsp3                    001C45 RLA    decsp4                    001C52 RLA    
decsp6                    001C5F RLA    decsp8                    001C6C RLA    
toseqax                   001C7D RLA    _fclose                   001C83 RLA    
_fgetc                    001CA5 RLA    _fgets                    001D31 RLA    
getfd                     001DE4 RLA    pushname                  001DFA RLA    
popname                   001E61 RLA    _fopen                    001EAA RLA    
_fputc                    001EC2 RLA    _fputs                    001F19 RLA    
_free                     001F5D RLA    iobuf_free                001F5D RLA    
gotoxy                    002130 RLA    tosicmp                   002143 RLA    
incax1                    00216F RLA    incax4                    002176 RLA    
incaxy                    002178 RLA    incsp1                    002181 RLA    
popax                     002188 RLA    incsp2                    002190 RLA    
incsp3                    00219E RLA    incsp4                    0021A3 RLA    
incsp5                    0021A8 RLA    incsp6                    0021AD RLA    
incsp8                    0021B2 RLA    toslcmp                   0021B7 RLA    
ldauidx                   0021F2 RLA    ldaxidx                   0021FD RLA    
ldaxysp                   00220A RLA    ldeaxysp                  002213 RLA    
leaa0sp                   002224 RLA    toseqeax                  002230 RLA    
tosoreax                  00223C RLA    pusheax                   002263 RLA    
tossubeax                 002281 RLA    tosuleeax                 0022A2 RLA    
boolne                    0022A8 RLA    booleq                    0022AE RLA    
boolule                   0022C5 RLA    boolult                   0022C7 RLA    
booluge                   0022CF RLA    _malloc                   0022D4 RLA    
tosumulax                 0023E2 RLA    mul8x16                   002429 RLA    
mul8x16a                  002433 RLA    mulax3                    002461 RLA    
_open                     002472 RLA    freebuffer                00254B RLA    
closedirect               002553 RLA    closeallfiles             00255D  LAI   
__osmaperrno              00256B RLA    _posix_memalign           002581 RLA    
iobuf_alloc               002581 RLA    popa                      002783 RLA    
popptr1                   00278F RLA    pusha                     0027A1 RLA    
pusha0                    0027B5 RLA    pushax                    0027B7 RLA    
pushwysp                  0027CF RLA    _read                     0027E9 RLA    
regswap2                  002843 RLA    _fflush                   002859 REA    
return0                   002859 RLA    rwprolog                  00285D RLA    
rwcommon                  00286A RLA    rwepilog                  00288D RLA    
staspidx                  00289A RLA    stax0sp                   0028B0 RLA    
staxysp                   0028B2 RLA    staxspidx                 0028BB RLA    
steaxysp                  0028D8 RLA    steaxspidx                0028EB RLA    
_strchr                   00290D RLA    _strlen                   002934 RLA    
_strncpy                  00294A RLA    tossubax                  002990 RLA    
subeqysp                  0029A5 RLA    subysp                    0029B8 RLA    
tosulong                  0029C5 RLA    tosugeax                  002A01 RLA    
tosultax                  002A09 RLA    _write                    002A0F RLA    
zerobss                   002A7F RLA    __DESTRUCTOR_TABLE__      002D03 RLA    
__filetab                 002D07 RLA    _stdin                    002D1F RLA    
_stdout                   002D21 RLA    __heapptr                 002D27 RLA    
__heapend                 002D29 RLA    __heapfirst               002D2B RLA    
__heaplast                002D2D RLA    __dos_type                002D5B RLA    
fdtab                     002D5C RLA    callmli                   002D7C RLA    
__BSS_RUN__               002DC6 RLA    __ONCE_LOAD__             002DC6 RLA    
__ONCE_RUN__              002DC6 RLA    initheap                  002DC6  LAI   
initlib                   002DD6 RLA    initdostype               002E4C  LAI   
raisefilelevel            002E60  LAI   initprompt                002E69  LAI   
__CONSTRUCTOR_TABLE__     002E6E RLA    __MAIN_LAST__             002E76 RLA    
__oserror                 0030A8 RLA    __errno                   0030A9 RLA    
mliparam                  0030AB RLA    __HIMEM__                 009600 REA    
__LCADDR__                00D400 REA    __LC_LAST__               00D400 RLA    
__LC_START__              00D400 RLA    


Imports list:
-------------
COUT (cout.o):
    write.o                   apple2/write.s(9)
    read.o                    apple2/read.s(10)
RDKEY (rdkey.o):
    read.o                    apple2/read.s(10)
VTABZ (vtabz.o):
    cputc.o                   apple2/cputc.s(13)
    gotoxy.o                  apple2/gotoxy.s(9)
__BSS_RUN__ ([linker generated]):
    _heap.o                   common/_heap.s(8)
    zerobss.o                 common/zerobss.s(8)
__BSS_SIZE__ ([linker generated]):
    _heap.o                   common/_heap.s(8)
    zerobss.o                 common/zerobss.s(8)
__CONSTRUCTOR_COUNT__ ([linker generated]):
    condes.o                  runtime/condes.s(18)
__CONSTRUCTOR_TABLE__ ([linker generated]):
    condes.o                  runtime/condes.s(18)
__DESTRUCTOR_COUNT__ ([linker generated]):
    condes.o                  runtime/condes.s(19)
__DESTRUCTOR_TABLE__ ([linker generated]):
    condes.o                  runtime/condes.s(19)
__EXEHDR__ (exehdr.o):
    [linker generated]        /usr/share/cc65/cfg/apple2.cfg(7)
__FILETYPE__ ([linker generated]):
    exehdr.o                  apple2/exehdr.s(9)
__HIMEM__ ([linker generated]):
    [linker generated]        /usr/share/cc65/cfg/apple2.cfg(18)
    [linker generated]        /usr/share/cc65/cfg/apple2.cfg(17)
__LCADDR__ ([linker generated]):
    [linker generated]        /usr/share/cc65/cfg/apple2.cfg(19)
__LCSIZE__ ([linker generated]):
    [linker generated]        /usr/share/cc65/cfg/apple2.cfg(19)
__LC_LAST__ ([linker generated]):
    crt0.o                    apple2/crt0.s(13)
__LC_START__ ([linker generated]):
    crt0.o                    apple2/crt0.s(13)
__MAIN_LAST__ ([linker generated]):
    exehdr.o                  apple2/exehdr.s(10)
__MAIN_START__ ([linker generated]):
    exehdr.o                  apple2/exehdr.s(10)
__ONCE_LOAD__ ([linker generated]):
    crt0.o                    apple2/crt0.s(12)
__ONCE_RUN__ ([linker generated]):
    [linker generated]        /usr/share/cc65/cfg/apple2.cfg(18)
    [linker generated]        /usr/share/cc65/cfg/apple2.cfg(18)
__ONCE_SIZE__ ([linker generated]):
    crt0.o                    apple2/crt0.s(12)
__STACKSIZE__ ([linker generated]):
    _heap.o                   common/_heap.s(8)
    [linker generated]        /usr/share/cc65/cfg/apple2.cfg(18)
__STARTUP__ (crt0.o):
    hcat.o                    hcat.s(13)
__directerrno (_directerrno.o):
    open.o                    /build/cc65-5FfAbq/cc65-2.19/asminc/errno.inc(10)
    close.o                   /build/cc65-5FfAbq/cc65-2.19/asminc/errno.inc(10)
    write.o                   /build/cc65-5FfAbq/cc65-2.19/asminc/errno.inc(10)
    read.o                    /build/cc65-5FfAbq/cc65-2.19/asminc/errno.inc(10)
__dos_type (dosdetect.o):
    open.o                    apple2/open.s(12)
    mli.o                     apple2/mli.s(7)
__errno (errno.o):
    _seterrno.o               /build/cc65-5FfAbq/cc65-2.19/asminc/errno.inc(7)
__fdesc (_fdesc.o):
    fopen.o                   common/fopen.s(10)
__filetab (_file.o):
    _fdesc.o                  /build/cc65-5FfAbq/cc65-2.19/asminc/_file.inc(25)
__fopen (_fopen.o):
    fopen.o                   common/fopen.s(10)
__heapend (_heap.o):
    malloc.o                  /build/cc65-5FfAbq/cc65-2.19/asminc/_heap.inc(33)
__heapfirst (_heap.o):
    malloc.o                  /build/cc65-5FfAbq/cc65-2.19/asminc/_heap.inc(34)
    free.o                    /build/cc65-5FfAbq/cc65-2.19/asminc/_heap.inc(34)
__heaplast (_heap.o):
    malloc.o                  /build/cc65-5FfAbq/cc65-2.19/asminc/_heap.inc(35)
    free.o                    /build/cc65-5FfAbq/cc65-2.19/asminc/_heap.inc(35)
__heapptr (_heap.o):
    malloc.o                  /build/cc65-5FfAbq/cc65-2.19/asminc/_heap.inc(32)
    free.o                    /build/cc65-5FfAbq/cc65-2.19/asminc/_heap.inc(32)
__mappederrno (_mappederrno.o):
    open.o                    /build/cc65-5FfAbq/cc65-2.19/asminc/errno.inc(10)
    close.o                   /build/cc65-5FfAbq/cc65-2.19/asminc/errno.inc(10)
    write.o                   /build/cc65-5FfAbq/cc65-2.19/asminc/errno.inc(10)
    rwcommon.o                /build/cc65-5FfAbq/cc65-2.19/asminc/errno.inc(10)
__oserror (_oserror.o):
    open.o                    /build/cc65-5FfAbq/cc65-2.19/asminc/errno.inc(7)
    _mappederrno.o            /build/cc65-5FfAbq/cc65-2.19/asminc/errno.inc(7)
    _directerrno.o            /build/cc65-5FfAbq/cc65-2.19/asminc/errno.inc(7)
    rwcommon.o                /build/cc65-5FfAbq/cc65-2.19/asminc/errno.inc(7)
    read.o                    /build/cc65-5FfAbq/cc65-2.19/asminc/errno.inc(7)
__osmaperrno (oserror.o):
    _mappederrno.o            /build/cc65-5FfAbq/cc65-2.19/asminc/errno.inc(8)
__seterrno (_seterrno.o):
    _mappederrno.o            /build/cc65-5FfAbq/cc65-2.19/asminc/errno.inc(9)
    _fopen.o                  /build/cc65-5FfAbq/cc65-2.19/asminc/errno.inc(9)
    _directerrno.o            /build/cc65-5FfAbq/cc65-2.19/asminc/errno.inc(9)
    fopen.o                   /build/cc65-5FfAbq/cc65-2.19/asminc/errno.inc(9)
    fmisc.o                   /build/cc65-5FfAbq/cc65-2.19/asminc/errno.inc(9)
    fgets.o                   ../libwrk/apple2/fgets.s(15)
    fclose.o                  /build/cc65-5FfAbq/cc65-2.19/asminc/errno.inc(9)
_close (close.o):
    fclose.o                  common/fclose.s(10)
_cputc (cputc.o):
    cputs.o                   conio/cputs.s(9)
_cputs (cputs.o):
    hcat.o                    hcat.s(14)
_fclose (fclose.o):
    hcat.o                    hcat.s(17)
_fflush (fmisc.o):
    hcat.o                    hcat.s(18)
_fgetc (fgetc.o):
    fgets.o                   ../libwrk/apple2/fgets.s(13)
    hcat.o                    hcat.s(19)
_fgets (fgets.o):
    hcat.o                    hcat.s(20)
_fopen (fopen.o):
    hcat.o                    hcat.s(21)
_fputc (fputc.o):
    hcat.o                    hcat.s(22)
_fputs (fputs.o):
    hcat.o                    hcat.s(23)
_free (free.o):
    pmemalign.o               ../libwrk/apple2/pmemalign.s(14)
    iobuf.o                   apple2/iobuf.s(8)
_main (hcat.o):
    callmain.o                runtime/callmain.s(11)
_malloc (malloc.o):
    pmemalign.o               ../libwrk/apple2/pmemalign.s(13)
_open (open.o):
    _fopen.o                  common/_fopen.s(10)
_posix_memalign (pmemalign.o):
    iobuf.o                   apple2/iobuf.s(8)
_read (read.o):
    fgetc.o                   ../libwrk/apple2/fgetc.s(14)
_stdin (_file.o):
    hcat.o                    hcat.s(15)
_stdout (_file.o):
    hcat.o                    hcat.s(16)
_strchr (strchr.o):
    hcat.o                    hcat.s(24)
_strlen (strlen.o):
    fputs.o                   ../libwrk/apple2/fputs.s(14)
    hcat.o                    hcat.s(25)
_strncpy (strncpy.o):
    hcat.o                    hcat.s(26)
_write (write.o):
    fputs.o                   ../libwrk/apple2/fputs.s(15)
    fputc.o                   ../libwrk/apple2/fputc.s(14)
addeqysp (addeqsp.o):
    fgets.o                   ../libwrk/apple2/fgets.s(116)
    hcat.o                    hcat.s(2352)
    hcat.o                    hcat.s(2352)
    hcat.o                    hcat.s(2352)
    hcat.o                    hcat.s(2352)
addysp (addysp.o):
    pmemalign.o               ../libwrk/apple2/pmemalign.s(294)
    filename.o                apple2/filename.s(8)
    open.o                    apple2/open.s(14)
    incsp8.o                  runtime/incsp8.s(8)
    incsp6.o                  runtime/incsp6.s(8)
    incsp5.o                  runtime/incsp5.s(8)
    incsp4.o                  runtime/incsp4.s(8)
    incsp3.o                  runtime/incsp3.s(8)
    fgets.o                   ../libwrk/apple2/fgets.s(116)
    hcat.o                    hcat.s(2352)
    hcat.o                    hcat.s(2352)
    hcat.o                    hcat.s(2352)
    hcat.o                    hcat.s(2352)
    hcat.o                    hcat.s(2352)
    hcat.o                    hcat.s(2352)
addysp1 (addysp.o):
    and.o                     runtime/and.s(8)
    sub.o                     runtime/sub.s(8)
    lsub.o                    runtime/lsub.s(11)
    lor.o                     runtime/lor.s(9)
aslax1 (aslax1.o):
    hcat.o                    hcat.s(2352)
axulong (axlong.o):
    hcat.o                    hcat.s(2352)
bnegax (bneg.o):
    hcat.o                    hcat.s(2352)
    hcat.o                    hcat.s(2352)
    hcat.o                    hcat.s(2352)
    hcat.o                    hcat.s(2352)
    hcat.o                    hcat.s(2352)
    hcat.o                    hcat.s(2352)
    hcat.o                    hcat.s(2352)
booleq (makebool.o):
    leq.o                     runtime/leq.s(8)
    eq.o                      runtime/eq.s(8)
    hcat.o                    hcat.s(2352)
    hcat.o                    hcat.s(2352)
    hcat.o                    hcat.s(2352)
    hcat.o                    hcat.s(2352)
    hcat.o                    hcat.s(2352)
    hcat.o                    hcat.s(2352)
    hcat.o                    hcat.s(2352)
boolne (makebool.o):
    hcat.o                    hcat.s(2352)
    hcat.o                    hcat.s(2352)
    hcat.o                    hcat.s(2352)
    hcat.o                    hcat.s(2352)
    hcat.o                    hcat.s(2352)
    hcat.o                    hcat.s(2352)
    hcat.o                    hcat.s(2352)
booluge (makebool.o):
    uge.o                     runtime/uge.s(8)
boolule (makebool.o):
    lule.o                    runtime/lule.s(8)
boolult (makebool.o):
    ult.o                     runtime/ult.s(8)
    hcat.o                    hcat.s(2352)
callmain (callmain.o):
    crt0.o                    apple2/crt0.s(11)
callmli (mli.o):
    filename.o                apple2/mli.inc(131)
    open.o                    apple2/mli.inc(131)
    write.o                   apple2/mli.inc(131)
    rwcommon.o                apple2/mli.inc(131)
closedirect (open.o):
    close.o                   apple2/close.s(9)
complax (compl.o):
    pmemalign.o               ../libwrk/apple2/pmemalign.s(294)
decax1 (decax1.o):
    hcat.o                    hcat.s(2352)
decax4 (decax4.o):
    pmemalign.o               ../libwrk/apple2/pmemalign.s(294)
decsp1 (decsp1.o):
    filename.o                apple2/filename.s(8)
    fgetc.o                   ../libwrk/apple2/fgetc.s(96)
decsp2 (decsp2.o):
    toslong.o                 runtime/toslong.s(8)
    hcat.o                    hcat.s(2352)
    hcat.o                    hcat.s(2352)
    hcat.o                    hcat.s(2352)
    hcat.o                    hcat.s(2352)
    hcat.o                    hcat.s(2352)
    hcat.o                    hcat.s(2352)
    hcat.o                    hcat.s(2352)
decsp3 (decsp3.o):
    hcat.o                    hcat.s(2352)
decsp4 (decsp4.o):
    lpush.o                   runtime/lpush.s(12)
    fgets.o                   ../libwrk/apple2/fgets.s(116)
    hcat.o                    hcat.s(2352)
    hcat.o                    hcat.s(2352)
decsp6 (decsp6.o):
    pmemalign.o               ../libwrk/apple2/pmemalign.s(294)
decsp8 (decsp8.o):
    hcat.o                    hcat.s(2352)
    hcat.o                    hcat.s(2352)
donelib (condes.o):
    crt0.o                    apple2/crt0.s(10)
fdtab (filedes.o):
    open.o                    apple2/filedes.inc(13)
    close.o                   apple2/filedes.inc(13)
    write.o                   apple2/filedes.inc(13)
    read.o                    apple2/filedes.inc(13)
freebuffer (open.o):
    close.o                   apple2/close.s(9)
getfd (filedes.o):
    close.o                   apple2/filedes.inc(14)
    rwcommon.o                apple2/filedes.inc(14)
gotoxy (gotoxy.o):
    cputc.o                   apple2/cputc.s(13)
    cputs.o                   conio/cputs.s(9)
incax1 (incax1.o):
    hcat.o                    hcat.s(2352)
    hcat.o                    hcat.s(2352)
    hcat.o                    hcat.s(2352)
incax4 (incaxy.o):
    pmemalign.o               ../libwrk/apple2/pmemalign.s(294)
incaxy (incaxy.o):
    open.o                    apple2/open.s(14)
incsp1 (incsp1.o):
    hcat.o                    hcat.s(2352)
    hcat.o                    hcat.s(2352)
    hcat.o                    hcat.s(2352)
    hcat.o                    hcat.s(2352)
    hcat.o                    hcat.s(2352)
    hcat.o                    hcat.s(2352)
    hcat.o                    hcat.s(2352)
    hcat.o                    hcat.s(2352)
    hcat.o                    hcat.s(2352)
incsp2 (incsp2.o):
    staxspi.o                 runtime/staxspi.s(9)
    staspidx.o                runtime/staspidx.s(8)
    popptr1.o                 runtime/popptr1.s(8)
    hcat.o                    hcat.s(2352)
    hcat.o                    hcat.s(2352)
    hcat.o                    hcat.s(2352)
    hcat.o                    hcat.s(2352)
incsp3 (incsp3.o):
    fgetc.o                   ../libwrk/apple2/fgetc.s(96)
    hcat.o                    hcat.s(2352)
    hcat.o                    hcat.s(2352)
incsp4 (incsp4.o):
    open.o                    apple2/open.s(14)
    lcmp.o                    runtime/lcmp.s(9)
    _fopen.o                  common/_fopen.s(11)
    fputs.o                   ../libwrk/apple2/fputs.s(61)
    fputc.o                   ../libwrk/apple2/fputc.s(75)
    hcat.o                    hcat.s(2352)
    hcat.o                    hcat.s(2352)
    hcat.o                    hcat.s(2352)
    hcat.o                    hcat.s(2352)
incsp5 (incsp5.o):
    hcat.o                    hcat.s(2352)
    hcat.o                    hcat.s(2352)
    hcat.o                    hcat.s(2352)
incsp6 (incsp6.o):
    hcat.o                    hcat.s(2352)
incsp8 (incsp8.o):
    hcat.o                    hcat.s(2352)
    hcat.o                    hcat.s(2352)
    hcat.o                    hcat.s(2352)
initlib (condes.o):
    crt0.o                    apple2/crt0.s(10)
iobuf_alloc (iobuf.o):
    open.o                    apple2/open.s(13)
iobuf_free (iobuf.o):
    open.o                    apple2/open.s(13)
ldauidx (ldaui.o):
    hcat.o                    hcat.s(2352)
    hcat.o                    hcat.s(2352)
    hcat.o                    hcat.s(2352)
    hcat.o                    hcat.s(2352)
    hcat.o                    hcat.s(2352)
    hcat.o                    hcat.s(2352)
    hcat.o                    hcat.s(2352)
ldaxidx (ldaxi.o):
    pmemalign.o               ../libwrk/apple2/pmemalign.s(294)
ldaxysp (ldaxsp.o):
    pmemalign.o               ../libwrk/apple2/pmemalign.s(294)
    fputs.o                   ../libwrk/apple2/fputs.s(61)
    fgets.o                   ../libwrk/apple2/fgets.s(116)
    hcat.o                    hcat.s(2352)
    hcat.o                    hcat.s(2352)
    hcat.o                    hcat.s(2352)
    hcat.o                    hcat.s(2352)
    hcat.o                    hcat.s(2352)
    hcat.o                    hcat.s(2352)
    hcat.o                    hcat.s(2352)
    hcat.o                    hcat.s(2352)
    hcat.o                    hcat.s(2352)
    hcat.o                    hcat.s(2352)
    hcat.o                    hcat.s(2352)
    hcat.o                    hcat.s(2352)
    hcat.o                    hcat.s(2352)
    hcat.o                    hcat.s(2352)
    hcat.o                    hcat.s(2352)
    hcat.o                    hcat.s(2352)
ldeaxysp (ldeaxysp.o):
    hcat.o                    hcat.s(2352)
    hcat.o                    hcat.s(2352)
leaa0sp (leaaxsp.o):
    fputc.o                   ../libwrk/apple2/fputc.s(75)
    fgetc.o                   ../libwrk/apple2/fgetc.s(96)
    hcat.o                    hcat.s(2352)
    hcat.o                    hcat.s(2352)
    hcat.o                    hcat.s(2352)
mliparam (mli.o):
    filename.o                apple2/mli.inc(130)
    open.o                    apple2/mli.inc(130)
    write.o                   apple2/mli.inc(130)
    rwcommon.o                apple2/mli.inc(130)
mul8x16 (mul8.o):
    mul.o                     runtime/mul.s(8)
mul8x16a (mul8.o):
    mul.o                     runtime/mul.s(8)
mulax3 (mulax3.o):
    hcat.o                    hcat.s(2352)
popa (popa.o):
    gotoxy.o                  apple2/gotoxy.s(9)
popax (incsp2.o):
    open.o                    apple2/open.s(14)
    strncpy.o                 common/strncpy.s(8)
    strchr.o                  common/strchr.s(9)
    rwcommon.o                apple2/rwcommon.s(6)
popname (filename.o):
    open.o                    apple2/open.s(12)
popptr1 (popptr1.o):
    strncpy.o                 common/strncpy.s(8)
    steaxspi.o                runtime/steaxspi.s(9)
    rwcommon.o                apple2/rwcommon.s(6)
    mul8.o                    runtime/mul8.s(9)
    mul.o                     runtime/mul.s(9)
ptr1 (zeropage.o):
    malloc.o                  common/malloc.s(108)
    ldaxi.o                   runtime/ldaxi.s(8)
    free.o                    common/free.s(62)
    staxspi.o                 runtime/staxspi.s(10)
    pmemalign.o               ../libwrk/apple2/pmemalign.s(11)
    filename.o                /build/cc65-5FfAbq/cc65-2.19/asminc/zeropage.inc(12)
    lcmp.o                    runtime/lcmp.s(10)
    _fopen.o                  common/_fopen.s(12)
    zerobss.o                 common/zerobss.s(9)
    write.o                   /build/cc65-5FfAbq/cc65-2.19/asminc/zeropage.inc(12)
    strncpy.o                 common/strncpy.s(9)
    strchr.o                  common/strchr.s(10)
    steaxspi.o                runtime/steaxspi.s(10)
    staspidx.o                runtime/staspidx.s(9)
    rwcommon.o                /build/cc65-5FfAbq/cc65-2.19/asminc/zeropage.inc(12)
    read.o                    /build/cc65-5FfAbq/cc65-2.19/asminc/zeropage.inc(12)
    popptr1.o                 runtime/popptr1.s(9)
    mulax3.o                  runtime/mulax3.s(9)
    mul8.o                    runtime/mul8.s(10)
    mul.o                     runtime/mul.s(10)
    ldaui.o                   runtime/ldaui.s(8)
    fmisc.o                   common/fmisc.s(9)
    fclose.o                  common/fclose.s(11)
    cputs.o                   conio/cputs.s(10)
ptr2 (zeropage.o):
    malloc.o                  common/malloc.s(108)
    free.o                    common/free.s(62)
    write.o                   /build/cc65-5FfAbq/cc65-2.19/asminc/zeropage.inc(12)
    strncpy.o                 common/strncpy.s(9)
    strlen.o                  common/strlen.s(12)
    rwcommon.o                /build/cc65-5FfAbq/cc65-2.19/asminc/zeropage.inc(12)
    read.o                    /build/cc65-5FfAbq/cc65-2.19/asminc/zeropage.inc(12)
ptr3 (zeropage.o):
    malloc.o                  common/malloc.s(108)
    free.o                    common/free.s(62)
    read.o                    /build/cc65-5FfAbq/cc65-2.19/asminc/zeropage.inc(12)
ptr4 (zeropage.o):
    free.o                    common/free.s(62)
    mul8.o                    runtime/mul8.s(10)
    mul.o                     runtime/mul.s(10)
pusha (pusha.o):
    hcat.o                    hcat.s(2352)
    hcat.o                    hcat.s(2352)
    hcat.o                    hcat.s(2352)
    hcat.o                    hcat.s(2352)
    hcat.o                    hcat.s(2352)
    hcat.o                    hcat.s(2352)
    hcat.o                    hcat.s(2352)
    hcat.o                    hcat.s(2352)
    hcat.o                    hcat.s(2352)
    hcat.o                    hcat.s(2352)
    hcat.o                    hcat.s(2352)
    hcat.o                    hcat.s(2352)
    hcat.o                    hcat.s(2352)
    hcat.o                    hcat.s(2352)
pusha0 (pushax.o):
    fputs.o                   ../libwrk/apple2/fputs.s(61)
    fputc.o                   ../libwrk/apple2/fputc.s(75)
    fgetc.o                   ../libwrk/apple2/fgetc.s(96)
pushax (pushax.o):
    pmemalign.o               ../libwrk/apple2/pmemalign.s(294)
    open.o                    apple2/open.s(14)
    callmain.o                runtime/callmain.s(11)
    fputs.o                   ../libwrk/apple2/fputs.s(61)
    fputc.o                   ../libwrk/apple2/fputc.s(75)
    fopen.o                   common/fopen.s(11)
    fgets.o                   ../libwrk/apple2/fgets.s(116)
    fgetc.o                   ../libwrk/apple2/fgetc.s(96)
    hcat.o                    hcat.s(2352)
    hcat.o                    hcat.s(2352)
    hcat.o                    hcat.s(2352)
    hcat.o                    hcat.s(2352)
    hcat.o                    hcat.s(2352)
    hcat.o                    hcat.s(2352)
    hcat.o                    hcat.s(2352)
    hcat.o                    hcat.s(2352)
    hcat.o                    hcat.s(2352)
    hcat.o                    hcat.s(2352)
    hcat.o                    hcat.s(2352)
    hcat.o                    hcat.s(2352)
    hcat.o                    hcat.s(2352)
    hcat.o                    hcat.s(2352)
    hcat.o                    hcat.s(2352)
    hcat.o                    hcat.s(2352)
    hcat.o                    hcat.s(2352)
    hcat.o                    hcat.s(2352)
    hcat.o                    hcat.s(2352)
    hcat.o                    hcat.s(2352)
    hcat.o                    hcat.s(2352)
    hcat.o                    hcat.s(2352)
pusheax (lpush.o):
    hcat.o                    hcat.s(2352)
    hcat.o                    hcat.s(2352)
pushname (filename.o):
    open.o                    apple2/open.s(12)
pushwysp (pushwsp.o):
    pmemalign.o               ../libwrk/apple2/pmemalign.s(294)
    fputs.o                   ../libwrk/apple2/fputs.s(61)
regbank (zeropage.o):
    pmemalign.o               ../libwrk/apple2/pmemalign.s(10)
    regswap2.o                runtime/regswap2.s(8)
    fputs.o                   ../libwrk/apple2/fputs.s(10)
    fputc.o                   ../libwrk/apple2/fputc.s(10)
    fgets.o                   ../libwrk/apple2/fgets.s(10)
    fgetc.o                   ../libwrk/apple2/fgetc.s(10)
regsave (zeropage.o):
    hcat.o                    hcat.s(10)
regswap2 (regswap2.o):
    fputs.o                   ../libwrk/apple2/fputs.s(61)
    fputc.o                   ../libwrk/apple2/fputc.s(75)
    fgets.o                   ../libwrk/apple2/fgets.s(116)
    fgetc.o                   ../libwrk/apple2/fgetc.s(96)
return0 (return0.o):
    _fopen.o                  common/_fopen.s(11)
    _fdesc.o                  common/_fdesc.s(9)
    ult.o                     runtime/ult.s(8)
    fmisc.o                   common/fmisc.s(8)
rwcommon (rwcommon.o):
    write.o                   apple2/write.s(8)
    read.o                    apple2/read.s(9)
rwepilog (rwcommon.o):
    write.o                   apple2/write.s(8)
rwprolog (rwcommon.o):
    write.o                   apple2/write.s(8)
    read.o                    apple2/read.s(9)
shleax2 (asleax2.o):
    hcat.o                    hcat.s(2352)
shleax4 (asleax4.o):
    hcat.o                    hcat.s(2352)
sp (zeropage.o):
    _heap.o                   common/_heap.s(9)
    decsp6.o                  runtime/decsp6.s(8)
    and.o                     runtime/and.s(9)
    subysp.o                  runtime/subysp.s(9)
    sub.o                     runtime/sub.s(9)
    staxspi.o                 runtime/staxspi.s(10)
    pmemalign.o               ../libwrk/apple2/pmemalign.s(10)
    filename.o                /build/cc65-5FfAbq/cc65-2.19/asminc/zeropage.inc(11)
    open.o                    /build/cc65-5FfAbq/cc65-2.19/asminc/zeropage.inc(11)
    lcmp.o                    runtime/lcmp.s(10)
    decsp1.o                  runtime/decsp1.s(8)
    _fopen.o                  common/_fopen.s(12)
    toslong.o                 runtime/toslong.s(9)
    subeqsp.o                 runtime/subeqsp.s(8)
    steaxsp.o                 runtime/steaxsp.s(8)
    staxsp.o                  runtime/staxsp.s(8)
    staspidx.o                runtime/staspidx.s(9)
    regswap2.o                runtime/regswap2.s(8)
    pushwsp.o                 runtime/pushwsp.s(8)
    pushax.o                  runtime/pushax.s(8)
    pusha.o                   runtime/pusha.s(8)
    popptr1.o                 runtime/popptr1.s(9)
    popa.o                    runtime/popa.s(8)
    lsub.o                    runtime/lsub.s(12)
    lpush.o                   runtime/lpush.s(13)
    lor.o                     runtime/lor.s(10)
    leaaxsp.o                 runtime/leaaxsp.s(8)
    ldeaxysp.o                runtime/ldeaxysp.s(12)
    ldaxsp.o                  runtime/ldaxsp.s(8)
    incsp2.o                  runtime/incsp2.s(8)
    incsp1.o                  runtime/incsp1.s(8)
    icmp.o                    runtime/icmp.s(9)
    fputs.o                   ../libwrk/apple2/fputs.s(10)
    fputc.o                   ../libwrk/apple2/fputc.s(10)
    fgets.o                   ../libwrk/apple2/fgets.s(10)
    fgetc.o                   ../libwrk/apple2/fgetc.s(10)
    decsp8.o                  runtime/decsp8.s(8)
    decsp4.o                  runtime/decsp4.s(8)
    decsp3.o                  runtime/decsp3.s(8)
    decsp2.o                  runtime/decsp2.s(8)
    crt0.o                    /build/cc65-5FfAbq/cc65-2.19/asminc/zeropage.inc(11)
    addysp.o                  runtime/addysp.s(8)
    addeqsp.o                 runtime/addeqsp.s(8)
    add.o                     runtime/add.s(12)
    hcat.o                    hcat.s(10)
sreg (zeropage.o):
    lcmp.o                    runtime/lcmp.s(10)
    steaxspi.o                runtime/steaxspi.s(10)
    steaxsp.o                 runtime/steaxsp.s(8)
    lsub.o                    runtime/lsub.s(12)
    lpush.o                   runtime/lpush.s(13)
    lor.o                     runtime/lor.s(10)
    ldeaxysp.o                runtime/ldeaxysp.s(12)
    icmp.o                    runtime/icmp.s(9)
    axlong.o                  runtime/axlong.s(9)
    asleax4.o                 runtime/asleax4.s(8)
    asleax2.o                 runtime/asleax2.s(8)
    hcat.o                    hcat.s(10)
staspidx (staspidx.o):
    hcat.o                    hcat.s(2352)
    hcat.o                    hcat.s(2352)
    hcat.o                    hcat.s(2352)
    hcat.o                    hcat.s(2352)
    hcat.o                    hcat.s(2352)
    hcat.o                    hcat.s(2352)
stax0sp (staxsp.o):
    fgets.o                   ../libwrk/apple2/fgets.s(116)
staxspidx (staxspi.o):
    pmemalign.o               ../libwrk/apple2/pmemalign.s(294)
staxysp (staxsp.o):
    pmemalign.o               ../libwrk/apple2/pmemalign.s(294)
    fgets.o                   ../libwrk/apple2/fgets.s(116)
    hcat.o                    hcat.s(2352)
    hcat.o                    hcat.s(2352)
    hcat.o                    hcat.s(2352)
    hcat.o                    hcat.s(2352)
    hcat.o                    hcat.s(2352)
    hcat.o                    hcat.s(2352)
    hcat.o                    hcat.s(2352)
    hcat.o                    hcat.s(2352)
steaxspidx (steaxspi.o):
    hcat.o                    hcat.s(2352)
steaxysp (steaxsp.o):
    hcat.o                    hcat.s(2352)
subeqysp (subeqsp.o):
    pmemalign.o               ../libwrk/apple2/pmemalign.s(294)
    fgets.o                   ../libwrk/apple2/fgets.s(116)
    hcat.o                    hcat.s(2352)
subysp (subysp.o):
    filename.o                apple2/filename.s(8)
tmp1 (zeropage.o):
    staxspi.o                 runtime/staxspi.s(10)
    incaxy.o                  runtime/incaxy.s(8)
    filename.o                /build/cc65-5FfAbq/cc65-2.19/asminc/zeropage.inc(13)
    open.o                    /build/cc65-5FfAbq/cc65-2.19/asminc/zeropage.inc(13)
    strncpy.o                 common/strncpy.s(9)
    strchr.o                  common/strchr.s(10)
    steaxspi.o                runtime/steaxspi.s(10)
    staspidx.o                runtime/staspidx.s(9)
    mul.o                     runtime/mul.s(10)
    lor.o                     runtime/lor.s(10)
    fgets.o                   ../libwrk/apple2/fgets.s(11)
    cputs.o                   conio/cputs.s(10)
    asleax4.o                 runtime/asleax4.s(8)
    asleax2.o                 runtime/asleax2.s(8)
    aslax1.o                  runtime/aslax1.s(8)
    add.o                     runtime/add.s(12)
    hcat.o                    hcat.s(11)
tmp2 (zeropage.o):
    open.o                    /build/cc65-5FfAbq/cc65-2.19/asminc/zeropage.inc(13)
    strncpy.o                 common/strncpy.s(9)
    steaxspi.o                runtime/steaxspi.s(10)
tmp3 (zeropage.o):
    open.o                    /build/cc65-5FfAbq/cc65-2.19/asminc/zeropage.inc(13)
    strncpy.o                 common/strncpy.s(9)
    steaxspi.o                runtime/steaxspi.s(10)
tosaddax (add.o):
    hcat.o                    hcat.s(2352)
    hcat.o                    hcat.s(2352)
    hcat.o                    hcat.s(2352)
    hcat.o                    hcat.s(2352)
    hcat.o                    hcat.s(2352)
    hcat.o                    hcat.s(2352)
    hcat.o                    hcat.s(2352)
    hcat.o                    hcat.s(2352)
    hcat.o                    hcat.s(2352)
    hcat.o                    hcat.s(2352)
tosandax (and.o):
    pmemalign.o               ../libwrk/apple2/pmemalign.s(294)
toseqax (eq.o):
    hcat.o                    hcat.s(2352)
    hcat.o                    hcat.s(2352)
toseqeax (leq.o):
    hcat.o                    hcat.s(2352)
tosicmp (icmp.o):
    ult.o                     runtime/ult.s(8)
    uge.o                     runtime/uge.s(8)
    eq.o                      runtime/eq.s(8)
toslcmp (lcmp.o):
    lule.o                    runtime/lule.s(8)
    leq.o                     runtime/leq.s(8)
tosoreax (lor.o):
    hcat.o                    hcat.s(2352)
tossubax (sub.o):
    pmemalign.o               ../libwrk/apple2/pmemalign.s(294)
tossubeax (lsub.o):
    hcat.o                    hcat.s(2352)
tosugeax (uge.o):
    hcat.o                    hcat.s(2352)
tosuleeax (lule.o):
    hcat.o                    hcat.s(2352)
tosulong (toslong.o):
    hcat.o                    hcat.s(2352)
tosultax (ult.o):
    hcat.o                    hcat.s(2352)
    hcat.o                    hcat.s(2352)
    hcat.o                    hcat.s(2352)
    hcat.o                    hcat.s(2352)
tosumulax (mul.o):
    hcat.o                    hcat.s(2352)
zerobss (zerobss.o):
    crt0.o                    apple2/crt0.s(11)

