Modules list:
-------------
hcat.o:
    CODE              Offs=000000  Size=000EAE  Align=00001  Fill=0000
    RODATA            Offs=000000  Size=0001C5  Align=00001  Fill=0000
    BSS               Offs=000000  Size=0000E0  Align=00001  Fill=0000
    DATA              Offs=000000  Size=000004  Align=00001  Fill=0000
hconv.o:
    CODE              Offs=000EAE  Size=003660  Align=00001  Fill=0000
    RODATA            Offs=0001C5  Size=000401  Align=00001  Fill=0000
    BSS               Offs=0000E0  Size=0000E0  Align=00001  Fill=0000
/usr/share/cc65/lib/apple2.lib(_cursor.o):
    BSS               Offs=0001C0  Size=000001  Align=00001  Fill=0000
/usr/share/cc65/lib/apple2.lib(_directerrno.o):
    CODE              Offs=00450E  Size=00000A  Align=00001  Fill=0000
/usr/share/cc65/lib/apple2.lib(_fdesc.o):
    CODE              Offs=004518  Size=00001D  Align=00001  Fill=0000
/usr/share/cc65/lib/apple2.lib(_file.o):
    DATA              Offs=000004  Size=00001E  Align=00001  Fill=0000
/usr/share/cc65/lib/apple2.lib(_fopen.o):
    CODE              Offs=004535  Size=00007B  Align=00001  Fill=0000
    BSS               Offs=0001C1  Size=000002  Align=00001  Fill=0000
/usr/share/cc65/lib/apple2.lib(_heap.o):
    DATA              Offs=000022  Size=00000A  Align=00001  Fill=0000
    ONCE              Offs=000000  Size=000010  Align=00001  Fill=0000
/usr/share/cc65/lib/apple2.lib(_mappederrno.o):
    CODE              Offs=0045B0  Size=000010  Align=00001  Fill=0000
/usr/share/cc65/lib/apple2.lib(_oserror.o):
    BSS               Offs=0001C3  Size=000001  Align=00001  Fill=0000
/usr/share/cc65/lib/apple2.lib(_seterrno.o):
    CODE              Offs=0045C0  Size=000009  Align=00001  Fill=0000
/usr/share/cc65/lib/apple2.lib(add.o):
    CODE              Offs=0045C9  Size=00001C  Align=00001  Fill=0000
/usr/share/cc65/lib/apple2.lib(addeqsp.o):
    CODE              Offs=0045E5  Size=000011  Align=00001  Fill=0000
/usr/share/cc65/lib/apple2.lib(addysp.o):
    CODE              Offs=0045F6  Size=00000E  Align=00001  Fill=0000
/usr/share/cc65/lib/apple2.lib(along.o):
    CODE              Offs=004604  Size=00000D  Align=00001  Fill=0000
/usr/share/cc65/lib/apple2.lib(and.o):
    CODE              Offs=004611  Size=000010  Align=00001  Fill=0000
/usr/share/cc65/lib/apple2.lib(aslax1.o):
    CODE              Offs=004621  Size=000008  Align=00001  Fill=0000
/usr/share/cc65/lib/apple2.lib(aslax2.o):
    CODE              Offs=004629  Size=00000B  Align=00001  Fill=0000
/usr/share/cc65/lib/apple2.lib(aslax3.o):
    CODE              Offs=004634  Size=00000E  Align=00001  Fill=0000
/usr/share/cc65/lib/apple2.lib(aslax4.o):
    CODE              Offs=004642  Size=000011  Align=00001  Fill=0000
/usr/share/cc65/lib/apple2.lib(asleax2.o):
    CODE              Offs=004653  Size=000013  Align=00001  Fill=0000
/usr/share/cc65/lib/apple2.lib(asleax4.o):
    CODE              Offs=004666  Size=000011  Align=00001  Fill=0000
/usr/share/cc65/lib/apple2.lib(asrax3.o):
    CODE              Offs=004677  Size=000014  Align=00001  Fill=0000
/usr/share/cc65/lib/apple2.lib(axlong.o):
    CODE              Offs=00468B  Size=00000D  Align=00001  Fill=0000
/usr/share/cc65/lib/apple2.lib(bneg.o):
    CODE              Offs=004698  Size=00000E  Align=00001  Fill=0000
/usr/share/cc65/lib/apple2.lib(callmain.o):
    CODE              Offs=0046A6  Size=000017  Align=00001  Fill=0000
    DATA              Offs=00002C  Size=000004  Align=00001  Fill=0000
/usr/share/cc65/lib/apple2.lib(cgetc.o):
    CODE              Offs=0046BD  Size=000028  Align=00001  Fill=0000
/usr/share/cc65/lib/apple2.lib(close.o):
    CODE              Offs=0046E5  Size=00001C  Align=00001  Fill=0000
/usr/share/cc65/lib/apple2.lib(compl.o):
    CODE              Offs=004701  Size=000009  Align=00001  Fill=0000
/usr/share/cc65/lib/apple2.lib(condes.o):
    CODE              Offs=00470A  Size=00000C  Align=00001  Fill=0000
    DATA              Offs=000030  Size=000025  Align=00001  Fill=0000
    ONCE              Offs=000010  Size=00000C  Align=00001  Fill=0000
/usr/share/cc65/lib/apple2.lib(cout.o):
    LOWCODE           Offs=000000  Size=00000A  Align=00001  Fill=0000
/usr/share/cc65/lib/apple2.lib(cputc.o):
    CODE              Offs=004716  Size=000043  Align=00001  Fill=0000
/usr/share/cc65/lib/apple2.lib(cputs.o):
    CODE              Offs=004759  Size=000023  Align=00001  Fill=0000
/usr/share/cc65/lib/apple2.lib(crt0.o):
    CODE              Offs=00477C  Size=000012  Align=00001  Fill=0000
    RODATA            Offs=0005C6  Size=000007  Align=00001  Fill=0000
    DATA              Offs=000055  Size=000003  Align=00001  Fill=0000
    STARTUP           Offs=000000  Size=000034  Align=00001  Fill=0000
    ONCE              Offs=00001C  Size=00006A  Align=00001  Fill=0000
    INIT              Offs=000000  Size=00001D  Align=00001  Fill=0000
/usr/share/cc65/lib/apple2.lib(decax1.o):
    CODE              Offs=00478E  Size=000007  Align=00001  Fill=0000
/usr/share/cc65/lib/apple2.lib(decax4.o):
    CODE              Offs=004795  Size=000007  Align=00001  Fill=0000
/usr/share/cc65/lib/apple2.lib(decsp1.o):
    CODE              Offs=00479C  Size=000009  Align=00001  Fill=0000
/usr/share/cc65/lib/apple2.lib(decsp2.o):
    CODE              Offs=0047A5  Size=00000D  Align=00001  Fill=0000
/usr/share/cc65/lib/apple2.lib(decsp4.o):
    CODE              Offs=0047B2  Size=00000D  Align=00001  Fill=0000
/usr/share/cc65/lib/apple2.lib(decsp6.o):
    CODE              Offs=0047BF  Size=00000D  Align=00001  Fill=0000
/usr/share/cc65/lib/apple2.lib(decsp8.o):
    CODE              Offs=0047CC  Size=00000D  Align=00001  Fill=0000
/usr/share/cc65/lib/apple2.lib(dosdetect.o):
    DATA              Offs=000058  Size=000001  Align=00001  Fill=0000
    ONCE              Offs=000086  Size=000014  Align=00001  Fill=0000
/usr/share/cc65/lib/apple2.lib(eq.o):
    CODE              Offs=0047D9  Size=00000A  Align=00001  Fill=0000
/usr/share/cc65/lib/apple2.lib(errno.o):
    BSS               Offs=0001C4  Size=000002  Align=00001  Fill=0000
/usr/share/cc65/lib/apple2.lib(exehdr.o):
    EXEHDR            Offs=000000  Size=00003A  Align=00001  Fill=0000
/usr/share/cc65/lib/apple2.lib(fclose.o):
    CODE              Offs=0047E3  Size=000022  Align=00001  Fill=0000
/usr/share/cc65/lib/apple2.lib(fgetc.o):
    CODE              Offs=004805  Size=00008C  Align=00001  Fill=0000
/usr/share/cc65/lib/apple2.lib(fgets.o):
    CODE              Offs=004891  Size=0000B3  Align=00001  Fill=0000
/usr/share/cc65/lib/apple2.lib(filedes.o):
    CODE              Offs=004944  Size=000016  Align=00001  Fill=0000
    DATA              Offs=000059  Size=000020  Align=00001  Fill=0000
/usr/share/cc65/lib/apple2.lib(filename.o):
    CODE              Offs=00495A  Size=00006C  Align=00001  Fill=0000
/usr/share/cc65/lib/apple2.lib(fmisc.o):
    CODE              Offs=0049C6  Size=000044  Align=00001  Fill=0000
/usr/share/cc65/lib/apple2.lib(fopen.o):
    CODE              Offs=004A0A  Size=000018  Align=00001  Fill=0000
/usr/share/cc65/lib/apple2.lib(fputs.o):
    CODE              Offs=004A22  Size=000044  Align=00001  Fill=0000
/usr/share/cc65/lib/apple2.lib(free.o):
    CODE              Offs=004A66  Size=0001D3  Align=00001  Fill=0000
/usr/share/cc65/lib/apple2.lib(gotoxy.o):
    CODE              Offs=004C39  Size=000011  Align=00001  Fill=0000
/usr/share/cc65/lib/apple2.lib(icmp.o):
    CODE              Offs=004C4A  Size=00002E  Align=00001  Fill=0000
/usr/share/cc65/lib/apple2.lib(incax1.o):
    CODE              Offs=004C78  Size=000007  Align=00001  Fill=0000
/usr/share/cc65/lib/apple2.lib(incaxy.o):
    CODE              Offs=004C7F  Size=00000B  Align=00001  Fill=0000
/usr/share/cc65/lib/apple2.lib(incsp1.o):
    CODE              Offs=004C8A  Size=000007  Align=00001  Fill=0000
/usr/share/cc65/lib/apple2.lib(incsp2.o):
    CODE              Offs=004C91  Size=000016  Align=00001  Fill=0000
/usr/share/cc65/lib/apple2.lib(incsp3.o):
    CODE              Offs=004CA7  Size=000005  Align=00001  Fill=0000
/usr/share/cc65/lib/apple2.lib(incsp4.o):
    CODE              Offs=004CAC  Size=000005  Align=00001  Fill=0000
/usr/share/cc65/lib/apple2.lib(incsp5.o):
    CODE              Offs=004CB1  Size=000005  Align=00001  Fill=0000
/usr/share/cc65/lib/apple2.lib(incsp6.o):
    CODE              Offs=004CB6  Size=000005  Align=00001  Fill=0000
/usr/share/cc65/lib/apple2.lib(incsp7.o):
    CODE              Offs=004CBB  Size=000005  Align=00001  Fill=0000
/usr/share/cc65/lib/apple2.lib(incsp8.o):
    CODE              Offs=004CC0  Size=000005  Align=00001  Fill=0000
/usr/share/cc65/lib/apple2.lib(iobuf.o):
/usr/share/cc65/lib/apple2.lib(jmpvec.o):
    DATA              Offs=000079  Size=000003  Align=00001  Fill=0000
/usr/share/cc65/lib/apple2.lib(ladd.o):
    CODE              Offs=004CC5  Size=000025  Align=00001  Fill=0000
/usr/share/cc65/lib/apple2.lib(lcmp.o):
    CODE              Offs=004CEA  Size=00003B  Align=00001  Fill=0000
/usr/share/cc65/lib/apple2.lib(ldaui.o):
    CODE              Offs=004D25  Size=000009  Align=00001  Fill=0000
/usr/share/cc65/lib/apple2.lib(ldaxi.o):
    CODE              Offs=004D2E  Size=00000D  Align=00001  Fill=0000
/usr/share/cc65/lib/apple2.lib(ldaxsp.o):
    CODE              Offs=004D3B  Size=000009  Align=00001  Fill=0000
/usr/share/cc65/lib/apple2.lib(ldeaxi.o):
    CODE              Offs=004D44  Size=000017  Align=00001  Fill=0000
/usr/share/cc65/lib/apple2.lib(ldeaxysp.o):
    CODE              Offs=004D5B  Size=000013  Align=00001  Fill=0000
/usr/share/cc65/lib/apple2.lib(leaaxsp.o):
    CODE              Offs=004D6E  Size=00000C  Align=00001  Fill=0000
/usr/share/cc65/lib/apple2.lib(leq.o):
    CODE              Offs=004D7A  Size=000006  Align=00001  Fill=0000
/usr/share/cc65/lib/apple2.lib(lne.o):
    CODE              Offs=004D80  Size=000006  Align=00001  Fill=0000
/usr/share/cc65/lib/apple2.lib(lor.o):
    CODE              Offs=004D86  Size=000024  Align=00001  Fill=0000
/usr/share/cc65/lib/apple2.lib(lpush.o):
    CODE              Offs=004DAA  Size=000021  Align=00001  Fill=0000
/usr/share/cc65/lib/apple2.lib(lsub.o):
    CODE              Offs=004DCB  Size=000027  Align=00001  Fill=0000
/usr/share/cc65/lib/apple2.lib(ltest.o):
    CODE              Offs=004DF2  Size=00000F  Align=00001  Fill=0000
/usr/share/cc65/lib/apple2.lib(ludiv.o):
    CODE              Offs=004E01  Size=00007A  Align=00001  Fill=0000
/usr/share/cc65/lib/apple2.lib(lule.o):
    CODE              Offs=004E7B  Size=000006  Align=00001  Fill=0000
/usr/share/cc65/lib/apple2.lib(lumod.o):
    CODE              Offs=004E81  Size=000019  Align=00001  Fill=0000
/usr/share/cc65/lib/apple2.lib(makebool.o):
    CODE              Offs=004E9A  Size=00002C  Align=00001  Fill=0000
/usr/share/cc65/lib/apple2.lib(malloc.o):
    CODE              Offs=004EC6  Size=00010E  Align=00001  Fill=0000
/usr/share/cc65/lib/apple2.lib(memcpy.o):
    CODE              Offs=004FD4  Size=00003C  Align=00001  Fill=0000
/usr/share/cc65/lib/apple2.lib(mli.o):
    BSS               Offs=0001C6  Size=000012  Align=00001  Fill=0000
    DATA              Offs=00007C  Size=000024  Align=00001  Fill=0000
/usr/share/cc65/lib/apple2.lib(mul.o):
    CODE              Offs=005010  Size=000045  Align=00001  Fill=0000
/usr/share/cc65/lib/apple2.lib(mul8.o):
    CODE              Offs=005055  Size=00003A  Align=00001  Fill=0000
/usr/share/cc65/lib/apple2.lib(mulax3.o):
    CODE              Offs=00508F  Size=000011  Align=00001  Fill=0000
/usr/share/cc65/lib/apple2.lib(open.o):
    CODE              Offs=0050A0  Size=0000F9  Align=00001  Fill=0000
    DATA              Offs=0000A0  Size=000009  Align=00001  Fill=0000
    ONCE              Offs=00009A  Size=000009  Align=00001  Fill=0000
/usr/share/cc65/lib/apple2.lib(oserror.o):
    CODE              Offs=005199  Size=000016  Align=00001  Fill=0000
    RODATA            Offs=0005CD  Size=000032  Align=00001  Fill=0000
/usr/share/cc65/lib/apple2.lib(pmemalign.o):
    CODE              Offs=0051AF  Size=000202  Align=00001  Fill=0000
/usr/share/cc65/lib/apple2.lib(popa.o):
    CODE              Offs=0053B1  Size=00000C  Align=00001  Fill=0000
/usr/share/cc65/lib/apple2.lib(popptr1.o):
    CODE              Offs=0053BD  Size=00000E  Align=00001  Fill=0000
/usr/share/cc65/lib/apple2.lib(pusha.o):
    CODE              Offs=0053CB  Size=000016  Align=00001  Fill=0000
/usr/share/cc65/lib/apple2.lib(pushax.o):
    CODE              Offs=0053E1  Size=00001A  Align=00001  Fill=0000
/usr/share/cc65/lib/apple2.lib(pushwsp.o):
    CODE              Offs=0053FB  Size=00001C  Align=00001  Fill=0000
/usr/share/cc65/lib/apple2.lib(rdkey.o):
    LOWCODE           Offs=00000A  Size=00000A  Align=00001  Fill=0000
/usr/share/cc65/lib/apple2.lib(read.o):
    CODE              Offs=005417  Size=00005A  Align=00001  Fill=0000
    ONCE              Offs=0000A3  Size=000005  Align=00001  Fill=0000
/usr/share/cc65/lib/apple2.lib(realloc.o):
    CODE              Offs=005471  Size=000145  Align=00001  Fill=0000
/usr/share/cc65/lib/apple2.lib(regswap2.o):
    CODE              Offs=0055B6  Size=000016  Align=00001  Fill=0000
/usr/share/cc65/lib/apple2.lib(return0.o):
    CODE              Offs=0055CC  Size=000004  Align=00001  Fill=0000
/usr/share/cc65/lib/apple2.lib(rwcommon.o):
    CODE              Offs=0055D0  Size=00003D  Align=00001  Fill=0000
/usr/share/cc65/lib/apple2.lib(shreax2.o):
    CODE              Offs=00560D  Size=000013  Align=00001  Fill=0000
/usr/share/cc65/lib/apple2.lib(shreax4.o):
    CODE              Offs=005620  Size=000011  Align=00001  Fill=0000
/usr/share/cc65/lib/apple2.lib(staspidx.o):
    CODE              Offs=005631  Size=000016  Align=00001  Fill=0000
/usr/share/cc65/lib/apple2.lib(staxsp.o):
    CODE              Offs=005647  Size=00000B  Align=00001  Fill=0000
/usr/share/cc65/lib/apple2.lib(staxspi.o):
    CODE              Offs=005652  Size=00001B  Align=00001  Fill=0000
/usr/share/cc65/lib/apple2.lib(steaxsp.o):
    CODE              Offs=00566D  Size=000015  Align=00001  Fill=0000
/usr/share/cc65/lib/apple2.lib(steaxspi.o):
    CODE              Offs=005682  Size=000022  Align=00001  Fill=0000
/usr/share/cc65/lib/apple2.lib(strchr.o):
    CODE              Offs=0056A4  Size=000027  Align=00001  Fill=0000
/usr/share/cc65/lib/apple2.lib(strcmp.o):
    CODE              Offs=0056CB  Size=000021  Align=00001  Fill=0000
/usr/share/cc65/lib/apple2.lib(strlen.o):
    CODE              Offs=0056EC  Size=000016  Align=00001  Fill=0000
/usr/share/cc65/lib/apple2.lib(strncpy.o):
    CODE              Offs=005702  Size=000044  Align=00001  Fill=0000
/usr/share/cc65/lib/apple2.lib(sub.o):
    CODE              Offs=005746  Size=000015  Align=00001  Fill=0000
/usr/share/cc65/lib/apple2.lib(subeqsp.o):
    CODE              Offs=00575B  Size=000015  Align=00001  Fill=0000
/usr/share/cc65/lib/apple2.lib(subysp.o):
    CODE              Offs=005770  Size=00000D  Align=00001  Fill=0000
/usr/share/cc65/lib/apple2.lib(toslong.o):
    CODE              Offs=00577D  Size=000038  Align=00001  Fill=0000
/usr/share/cc65/lib/apple2.lib(uge.o):
    CODE              Offs=0057B5  Size=00000A  Align=00001  Fill=0000
/usr/share/cc65/lib/apple2.lib(ugt.o):
    CODE              Offs=0057BF  Size=00000A  Align=00001  Fill=0000
/usr/share/cc65/lib/apple2.lib(ule.o):
    CODE              Offs=0057C9  Size=00000A  Align=00001  Fill=0000
/usr/share/cc65/lib/apple2.lib(ult.o):
    CODE              Offs=0057D3  Size=000008  Align=00001  Fill=0000
/usr/share/cc65/lib/apple2.lib(vtabz.o):
    LOWCODE           Offs=000014  Size=00000A  Align=00001  Fill=0000
/usr/share/cc65/lib/apple2.lib(write.o):
    CODE              Offs=0057DB  Size=000070  Align=00001  Fill=0000
/usr/share/cc65/lib/apple2.lib(zerobss.o):
    CODE              Offs=00584B  Size=000023  Align=00001  Fill=0000
/usr/share/cc65/lib/apple2.lib(zeropage.o):
    ZEROPAGE          Offs=000000  Size=00001A  Align=00001  Fill=0000


Segment list:
-------------
Name                   Start     End    Size  Align
----------------------------------------------------
ZEROPAGE              000080  000099  00001A  00001
EXEHDR                0007C9  000802  00003A  00001
STARTUP               000803  000836  000034  00001
LOWCODE               000837  000854  00001E  00001
CODE                  000855  0060C2  00586E  00001
RODATA                0060C3  0066C3  000601  00001
DATA                  0066C4  00676C  0000A9  00001
INIT                  00676D  006789  00001D  00001
BSS                   00678A  006961  0001D8  00001
ONCE                  00678A  006839  0000B0  00001


Exports list by name:
---------------------
COUT                      000837 RLA    RDKEY                     000841 RLA    
VTABZ                     00084B RLA    __BSS_RUN__               00678A RLA    
__BSS_SIZE__              0001D8 REA    __CONSTRUCTOR_COUNT__     000004 REA    
__CONSTRUCTOR_TABLE__     006832 RLA    __DESTRUCTOR_COUNT__      000001 REA    
__DESTRUCTOR_TABLE__      0066C2 RLA    __EXEHDR__                000001 REA    
__FILETYPE__              000006 REA    __HIMEM__                 009600 REA    
__LCADDR__                00D400 REA    __LCSIZE__                000C00 REA    
__LC_LAST__               00D400 RLA    __LC_START__              00D400 RLA    
__MAIN_LAST__             00683A RLA    __MAIN_START__            000803 RLA    
__ONCE_LOAD__             00678A RLA    __ONCE_RUN__              00678A RLA    
__ONCE_SIZE__             0000B0 REA    __STACKSIZE__             000800 REA    
__STARTUP__               000001 REA    __directerrno             004D63 RLA    
__dos_type                00671C RLA    __errno                   00694E RLA    
__fdesc                   004D6D RLA    __filetab                 0066C8 RLA    
__fopen                   004D8A RLA    __heapend                 0066EA RLA    
__heapfirst               0066EC RLA    __heaplast                0066EE RLA    
__heapptr                 0066E8 RLA    __mappederrno             004E05 RLA    
__oserror                 00694D RLA    __osmaperrno              0059EE RLA    
__seterrno                004E15 RLA    _cgetc                    004F12 RLA    
_close                    004F3A RLA    _cputc                    004F70 RLA    
_cputs                    004FB8 RLA    _fclose                   005038 RLA    
_fflush                   005E21 REA    _fgetc                    00505A RLA    
_fgets                    0050E6 RLA    _fopen                    00525F RLA    
_fputs                    005277 RLA    _free                     0052BB RLA    
_hconv_error_detail       00170B RLA    _hconv_map_modified_codepoint 002801 RLA    
_hconv_nbytes_decode_byte 001A48 RLA    _hconv_nbytes_decoder_init 001983 RLA    
_hconv_nbytes_finish      002796 RLA    _main                     0015FE RLA    
_malloc                   00571B RLA    _memcpy                   005829 RLA    
_open                     0058F5 RLA    _posix_memalign           005A04 RLA    
_read                     005C6C RLA    _realloc                  005CC6 RLA    
_stdin                    0066E0 RLA    _stdout                   0066E2 RLA    
_strchr                   005EF9 RLA    _strcmp                   005F20 RLA    
_strlen                   005F41 RLA    _strncpy                  005F57 RLA    
_write                    006030 RLA    addeqysp                  004E3C RLA    
addysp                    004E4C RLA    addysp1                   004E4B RLA    
aslax1                    004E76 RLA    aslax2                    004E7E RLA    
asrax3                    004ECC RLA    aulong                    004E5F RLA    
axlong                    004EE0 RLA    axulong                   004EE6 RLA    
bnegax                    004EED RLA    booleq                    0056F5 RLA    
boolge                    005706 RLA    boolne                    0056EF RLA    
booluge                   005716 RLA    boolugt                   005714 RLA    
boolule                   00570C RLA    boolult                   00570E RLA    
callmain                  004EFB RLA    callmli                   006740 RLA    
closeallfiles             0059E0  LAI   closedirect               0059D6 RLA    
complax                   004F56 RLA    cursor                    00694A RLA    
decax1                    004FE3 RLA    decax4                    004FEA RLA    
decsp1                    004FF1 RLA    decsp2                    004FFA RLA    
decsp4                    005007 RLA    decsp6                    005014 RLA    
decsp8                    005021 RLA    donelib                   004F5F RLA    
fdtab                     00671D RLA    freebuffer                0059CE RLA    
getfd                     005199 RLA    getlop                    005667 RLA    
gotoxy                    00548E RLA    incax1                    0054CD RLA    
incax4                    0054D4 RLA    incaxy                    0054D6 RLA    
incsp1                    0054DF RLA    incsp2                    0054EE RLA    
incsp3                    0054FC RLA    incsp4                    005501 RLA    
incsp5                    005506 RLA    incsp6                    00550B RLA    
incsp7                    005510 RLA    incsp8                    005515 RLA    
initdostype               006810  LAI   initheap                  00678A  LAI   
initlib                   00679A RLA    initprompt                00682D  LAI   
iobuf_alloc               005A04 RLA    iobuf_free                0052BB RLA    
jmpvec                    00673D RLA    ldauidx                   00557A RLA    
ldax0sp                   005590 RLA    ldaxidx                   005585 RLA    
ldaxysp                   005592 RLA    ldeaxidx                  00559B RLA    
ldeaxysp                  0055B2 RLA    leaa0sp                   0055C3 RLA    
mliparam                  006950 RLA    mul8x16                   0058AC RLA    
mul8x16a                  0058B6 RLA    mulax3                    0058E4 RLA    
popa                      005C06 RLA    popax                     0054E6 RLA    
popname                   005216 RLA    popptr1                   005C12 RLA    
ptr1                      000088 RLZ    ptr2                      00008A RLZ    
ptr3                      00008C RLZ    ptr4                      00008E RLZ    
pusha                     005C24 RLA    pusha0                    005C38 RLA    
pushax                    005C3A RLA    pusheax                   005608 RLA    
pushname                  0051AF RLA    pushwysp                  005C52 RLA    
putchardirect             004FA4 RLA    raisefilelevel            006824  LAI   
regbank                   000094 RLZ    regsave                   000084 RLZ    
regswap2                  005E0B RLA    return0                   005E21 RLA    
rwcommon                  005E32 RLA    rwepilog                  005E55 RLA    
rwprolog                  005E25 RLA    shlax1                    004E76 RLA    
shlax2                    004E7E RLA    shlax3                    004E89 RLA    
shlax4                    004E97 RLA    shleax2                   004EA8 RLA    
shleax4                   004EBB RLA    shreax2                   005E62 RLA    
shreax4                   005E75 RLA    sp                        000080 RLZ    
sreg                      000082 RLZ    staspidx                  005E86 RLA    
stax0sp                   005E9C RLA    staxspidx                 005EA7 RLA    
staxysp                   005E9E RLA    steaxspidx                005ED7 RLA    
steaxysp                  005EC4 RLA    subeqysp                  005FB2 RLA    
subysp                    005FC5 RLA    tmp1                      000090 RLZ    
tmp2                      000091 RLZ    tmp3                      000092 RLZ    
tmp4                      000093 RLZ    tosaddax                  004E20 RLA    
tosaddeax                 005520 RLA    tosandax                  004E68 RLA    
toseqax                   005032 RLA    toseqeax                  0055CF RLA    
tosicmp                   0054A1 RLA    toslcmp                   00553F RLA    
tosmulax                  005865 RLA    tosneeax                  0055D5 RLA    
tosoreax                  0055E1 RLA    tossubax                  005F9D RLA    
tossubeax                 005626 RLA    tosudiveax                00565C RLA    
tosugeax                  00600E RLA    tosugtax                  006018 RLA    
tosuleax                  006022 RLA    tosuleeax                 0056D0 RLA    
tosulong                  005FD2 RLA    tosultax                  00602A RLA    
tosumodeax                0056DC RLA    tosumulax                 005865 RLA    
udiv32                    00568B RLA    utsteax                   005647 RLA    
zerobss                   0060A0 RLA    


Exports list by value:
----------------------
__DESTRUCTOR_COUNT__      000001 REA    __EXEHDR__                000001 REA    
__STARTUP__               000001 REA    __CONSTRUCTOR_COUNT__     000004 REA    
__FILETYPE__              000006 REA    sp                        000080 RLZ    
sreg                      000082 RLZ    regsave                   000084 RLZ    
ptr1                      000088 RLZ    ptr2                      00008A RLZ    
ptr3                      00008C RLZ    ptr4                      00008E RLZ    
tmp1                      000090 RLZ    tmp2                      000091 RLZ    
tmp3                      000092 RLZ    tmp4                      000093 RLZ    
regbank                   000094 RLZ    __ONCE_SIZE__             0000B0 REA    
__BSS_SIZE__              0001D8 REA    __STACKSIZE__             000800 REA    
__MAIN_START__            000803 RLA    COUT                      000837 RLA    
RDKEY                     000841 RLA    VTABZ                     00084B RLA    
__LCSIZE__                000C00 REA    _main                     0015FE RLA    
_hconv_error_detail       00170B RLA    _hconv_nbytes_decoder_init 001983 RLA    
_hconv_nbytes_decode_byte 001A48 RLA    _hconv_nbytes_finish      002796 RLA    
_hconv_map_modified_codepoint 002801 RLA    __directerrno             004D63 RLA    
__fdesc                   004D6D RLA    __fopen                   004D8A RLA    
__mappederrno             004E05 RLA    __seterrno                004E15 RLA    
tosaddax                  004E20 RLA    addeqysp                  004E3C RLA    
addysp1                   004E4B RLA    addysp                    004E4C RLA    
aulong                    004E5F RLA    tosandax                  004E68 RLA    
aslax1                    004E76 RLA    shlax1                    004E76 RLA    
aslax2                    004E7E RLA    shlax2                    004E7E RLA    
shlax3                    004E89 RLA    shlax4                    004E97 RLA    
shleax2                   004EA8 RLA    shleax4                   004EBB RLA    
asrax3                    004ECC RLA    axlong                    004EE0 RLA    
axulong                   004EE6 RLA    bnegax                    004EED RLA    
callmain                  004EFB RLA    _cgetc                    004F12 RLA    
_close                    004F3A RLA    complax                   004F56 RLA    
donelib                   004F5F RLA    _cputc                    004F70 RLA    
putchardirect             004FA4 RLA    _cputs                    004FB8 RLA    
decax1                    004FE3 RLA    decax4                    004FEA RLA    
decsp1                    004FF1 RLA    decsp2                    004FFA RLA    
decsp4                    005007 RLA    decsp6                    005014 RLA    
decsp8                    005021 RLA    toseqax                   005032 RLA    
_fclose                   005038 RLA    _fgetc                    00505A RLA    
_fgets                    0050E6 RLA    getfd                     005199 RLA    
pushname                  0051AF RLA    popname                   005216 RLA    
_fopen                    00525F RLA    _fputs                    005277 RLA    
_free                     0052BB RLA    iobuf_free                0052BB RLA    
gotoxy                    00548E RLA    tosicmp                   0054A1 RLA    
incax1                    0054CD RLA    incax4                    0054D4 RLA    
incaxy                    0054D6 RLA    incsp1                    0054DF RLA    
popax                     0054E6 RLA    incsp2                    0054EE RLA    
incsp3                    0054FC RLA    incsp4                    005501 RLA    
incsp5                    005506 RLA    incsp6                    00550B RLA    
incsp7                    005510 RLA    incsp8                    005515 RLA    
tosaddeax                 005520 RLA    toslcmp                   00553F RLA    
ldauidx                   00557A RLA    ldaxidx                   005585 RLA    
ldax0sp                   005590 RLA    ldaxysp                   005592 RLA    
ldeaxidx                  00559B RLA    ldeaxysp                  0055B2 RLA    
leaa0sp                   0055C3 RLA    toseqeax                  0055CF RLA    
tosneeax                  0055D5 RLA    tosoreax                  0055E1 RLA    
pusheax                   005608 RLA    tossubeax                 005626 RLA    
utsteax                   005647 RLA    tosudiveax                00565C RLA    
getlop                    005667 RLA    udiv32                    00568B RLA    
tosuleeax                 0056D0 RLA    tosumodeax                0056DC RLA    
boolne                    0056EF RLA    booleq                    0056F5 RLA    
boolge                    005706 RLA    boolule                   00570C RLA    
boolult                   00570E RLA    boolugt                   005714 RLA    
booluge                   005716 RLA    _malloc                   00571B RLA    
_memcpy                   005829 RLA    tosmulax                  005865 RLA    
tosumulax                 005865 RLA    mul8x16                   0058AC RLA    
mul8x16a                  0058B6 RLA    mulax3                    0058E4 RLA    
_open                     0058F5 RLA    freebuffer                0059CE RLA    
closedirect               0059D6 RLA    closeallfiles             0059E0  LAI   
__osmaperrno              0059EE RLA    _posix_memalign           005A04 RLA    
iobuf_alloc               005A04 RLA    popa                      005C06 RLA    
popptr1                   005C12 RLA    pusha                     005C24 RLA    
pusha0                    005C38 RLA    pushax                    005C3A RLA    
pushwysp                  005C52 RLA    _read                     005C6C RLA    
_realloc                  005CC6 RLA    regswap2                  005E0B RLA    
_fflush                   005E21 REA    return0                   005E21 RLA    
rwprolog                  005E25 RLA    rwcommon                  005E32 RLA    
rwepilog                  005E55 RLA    shreax2                   005E62 RLA    
shreax4                   005E75 RLA    staspidx                  005E86 RLA    
stax0sp                   005E9C RLA    staxysp                   005E9E RLA    
staxspidx                 005EA7 RLA    steaxysp                  005EC4 RLA    
steaxspidx                005ED7 RLA    _strchr                   005EF9 RLA    
_strcmp                   005F20 RLA    _strlen                   005F41 RLA    
_strncpy                  005F57 RLA    tossubax                  005F9D RLA    
subeqysp                  005FB2 RLA    subysp                    005FC5 RLA    
tosulong                  005FD2 RLA    tosugeax                  00600E RLA    
tosugtax                  006018 RLA    tosuleax                  006022 RLA    
tosultax                  00602A RLA    _write                    006030 RLA    
zerobss                   0060A0 RLA    __DESTRUCTOR_TABLE__      0066C2 RLA    
__filetab                 0066C8 RLA    _stdin                    0066E0 RLA    
_stdout                   0066E2 RLA    __heapptr                 0066E8 RLA    
__heapend                 0066EA RLA    __heapfirst               0066EC RLA    
__heaplast                0066EE RLA    __dos_type                00671C RLA    
fdtab                     00671D RLA    jmpvec                    00673D RLA    
callmli                   006740 RLA    __BSS_RUN__               00678A RLA    
__ONCE_LOAD__             00678A RLA    __ONCE_RUN__              00678A RLA    
initheap                  00678A  LAI   initlib                   00679A RLA    
initdostype               006810  LAI   raisefilelevel            006824  LAI   
initprompt                00682D  LAI   __CONSTRUCTOR_TABLE__     006832 RLA    
__MAIN_LAST__             00683A RLA    cursor                    00694A RLA    
__oserror                 00694D RLA    __errno                   00694E RLA    
mliparam                  006950 RLA    __HIMEM__                 009600 REA    
__LCADDR__                00D400 REA    __LC_LAST__               00D400 RLA    
__LC_START__              00D400 RLA    


Imports list:
-------------
COUT (cout.o):
    write.o                   apple2/write.s(9)
    read.o                    apple2/read.s(10)
RDKEY (rdkey.o):
    read.o                    apple2/read.s(10)
VTABZ (vtabz.o):
    gotoxy.o                  apple2/gotoxy.s(9)
    cputc.o                   apple2/cputc.s(13)
__BSS_RUN__ ([linker generated]):
    _heap.o                   common/_heap.s(8)
    zerobss.o                 common/zerobss.s(8)
__BSS_SIZE__ ([linker generated]):
    _heap.o                   common/_heap.s(8)
    zerobss.o                 common/zerobss.s(8)
__CONSTRUCTOR_COUNT__ ([linker generated]):
    condes.o                  runtime/condes.s(18)
__CONSTRUCTOR_TABLE__ ([linker generated]):
    condes.o                  runtime/condes.s(18)
__DESTRUCTOR_COUNT__ ([linker generated]):
    condes.o                  runtime/condes.s(19)
__DESTRUCTOR_TABLE__ ([linker generated]):
    condes.o                  runtime/condes.s(19)
__EXEHDR__ (exehdr.o):
    [linker generated]        /usr/share/cc65/cfg/apple2.cfg(7)
__FILETYPE__ ([linker generated]):
    exehdr.o                  apple2/exehdr.s(9)
__HIMEM__ ([linker generated]):
    [linker generated]        /usr/share/cc65/cfg/apple2.cfg(18)
    [linker generated]        /usr/share/cc65/cfg/apple2.cfg(17)
__LCADDR__ ([linker generated]):
    [linker generated]        /usr/share/cc65/cfg/apple2.cfg(19)
__LCSIZE__ ([linker generated]):
    [linker generated]        /usr/share/cc65/cfg/apple2.cfg(19)
__LC_LAST__ ([linker generated]):
    crt0.o                    apple2/crt0.s(13)
__LC_START__ ([linker generated]):
    crt0.o                    apple2/crt0.s(13)
__MAIN_LAST__ ([linker generated]):
    exehdr.o                  apple2/exehdr.s(10)
__MAIN_START__ ([linker generated]):
    exehdr.o                  apple2/exehdr.s(10)
__ONCE_LOAD__ ([linker generated]):
    crt0.o                    apple2/crt0.s(12)
__ONCE_RUN__ ([linker generated]):
    [linker generated]        /usr/share/cc65/cfg/apple2.cfg(18)
    [linker generated]        /usr/share/cc65/cfg/apple2.cfg(18)
__ONCE_SIZE__ ([linker generated]):
    crt0.o                    apple2/crt0.s(12)
__STACKSIZE__ ([linker generated]):
    _heap.o                   common/_heap.s(8)
    [linker generated]        /usr/share/cc65/cfg/apple2.cfg(18)
__STARTUP__ (crt0.o):
    hcat.o                    hcat.s(13)
__directerrno (_directerrno.o):
    open.o                    /build/cc65-5FfAbq/cc65-2.19/asminc/errno.inc(10)
    close.o                   /build/cc65-5FfAbq/cc65-2.19/asminc/errno.inc(10)
    write.o                   /build/cc65-5FfAbq/cc65-2.19/asminc/errno.inc(10)
    read.o                    /build/cc65-5FfAbq/cc65-2.19/asminc/errno.inc(10)
__dos_type (dosdetect.o):
    open.o                    apple2/open.s(12)
    mli.o                     apple2/mli.s(7)
__errno (errno.o):
    _seterrno.o               /build/cc65-5FfAbq/cc65-2.19/asminc/errno.inc(7)
__fdesc (_fdesc.o):
    fopen.o                   common/fopen.s(10)
__filetab (_file.o):
    _fdesc.o                  /build/cc65-5FfAbq/cc65-2.19/asminc/_file.inc(25)
__fopen (_fopen.o):
    fopen.o                   common/fopen.s(10)
__heapend (_heap.o):
    realloc.o                 ../libwrk/apple2/realloc.s(18)
    malloc.o                  /build/cc65-5FfAbq/cc65-2.19/asminc/_heap.inc(33)
__heapfirst (_heap.o):
    malloc.o                  /build/cc65-5FfAbq/cc65-2.19/asminc/_heap.inc(34)
    free.o                    /build/cc65-5FfAbq/cc65-2.19/asminc/_heap.inc(34)
__heaplast (_heap.o):
    malloc.o                  /build/cc65-5FfAbq/cc65-2.19/asminc/_heap.inc(35)
    free.o                    /build/cc65-5FfAbq/cc65-2.19/asminc/_heap.inc(35)
__heapptr (_heap.o):
    realloc.o                 ../libwrk/apple2/realloc.s(17)
    malloc.o                  /build/cc65-5FfAbq/cc65-2.19/asminc/_heap.inc(32)
    free.o                    /build/cc65-5FfAbq/cc65-2.19/asminc/_heap.inc(32)
__mappederrno (_mappederrno.o):
    open.o                    /build/cc65-5FfAbq/cc65-2.19/asminc/errno.inc(10)
    close.o                   /build/cc65-5FfAbq/cc65-2.19/asminc/errno.inc(10)
    write.o                   /build/cc65-5FfAbq/cc65-2.19/asminc/errno.inc(10)
    rwcommon.o                /build/cc65-5FfAbq/cc65-2.19/asminc/errno.inc(10)
__oserror (_oserror.o):
    open.o                    /build/cc65-5FfAbq/cc65-2.19/asminc/errno.inc(7)
    _mappederrno.o            /build/cc65-5FfAbq/cc65-2.19/asminc/errno.inc(7)
    _directerrno.o            /build/cc65-5FfAbq/cc65-2.19/asminc/errno.inc(7)
    rwcommon.o                /build/cc65-5FfAbq/cc65-2.19/asminc/errno.inc(7)
    read.o                    /build/cc65-5FfAbq/cc65-2.19/asminc/errno.inc(7)
__osmaperrno (oserror.o):
    _mappederrno.o            /build/cc65-5FfAbq/cc65-2.19/asminc/errno.inc(8)
__seterrno (_seterrno.o):
    _mappederrno.o            /build/cc65-5FfAbq/cc65-2.19/asminc/errno.inc(9)
    _fopen.o                  /build/cc65-5FfAbq/cc65-2.19/asminc/errno.inc(9)
    _directerrno.o            /build/cc65-5FfAbq/cc65-2.19/asminc/errno.inc(9)
    fopen.o                   /build/cc65-5FfAbq/cc65-2.19/asminc/errno.inc(9)
    fmisc.o                   /build/cc65-5FfAbq/cc65-2.19/asminc/errno.inc(9)
    fgets.o                   ../libwrk/apple2/fgets.s(15)
    fclose.o                  /build/cc65-5FfAbq/cc65-2.19/asminc/errno.inc(9)
_cgetc (cgetc.o):
    hcat.o                    hcat.s(20)
_close (close.o):
    fclose.o                  common/fclose.s(10)
_cputc (cputc.o):
    cputs.o                   conio/cputs.s(9)
_cputs (cputs.o):
    hcat.o                    hcat.s(19)
_fclose (fclose.o):
    hcat.o                    hcat.s(23)
_fflush (fmisc.o):
    hcat.o                    hcat.s(24)
_fgetc (fgetc.o):
    fgets.o                   ../libwrk/apple2/fgets.s(13)
    hcat.o                    hcat.s(25)
_fgets (fgets.o):
    hcat.o                    hcat.s(26)
_fopen (fopen.o):
    hcat.o                    hcat.s(27)
_fputs (fputs.o):
    hcat.o                    hcat.s(28)
_free (free.o):
    pmemalign.o               ../libwrk/apple2/pmemalign.s(14)
    iobuf.o                   apple2/iobuf.s(8)
    realloc.o                 ../libwrk/apple2/realloc.s(15)
    hconv.o                   hconv.s(24)
_hconv_error_detail (hconv.o):
    hcat.o                    hcat.s(14)
_hconv_map_modified_codepoint (hconv.o):
    hcat.o                    hcat.s(18)
_hconv_nbytes_decode_byte (hconv.o):
    hcat.o                    hcat.s(16)
_hconv_nbytes_decoder_init (hconv.o):
    hcat.o                    hcat.s(15)
_hconv_nbytes_finish (hconv.o):
    hcat.o                    hcat.s(17)
_main (hcat.o):
    callmain.o                runtime/callmain.s(11)
_malloc (malloc.o):
    pmemalign.o               ../libwrk/apple2/pmemalign.s(13)
    realloc.o                 ../libwrk/apple2/realloc.s(13)
    hconv.o                   hconv.s(22)
_memcpy (memcpy.o):
    realloc.o                 ../libwrk/apple2/realloc.s(16)
    hconv.o                   hconv.s(27)
_open (open.o):
    _fopen.o                  common/_fopen.s(10)
_posix_memalign (pmemalign.o):
    iobuf.o                   apple2/iobuf.s(8)
_read (read.o):
    fgetc.o                   ../libwrk/apple2/fgetc.s(14)
_realloc (realloc.o):
    hconv.o                   hconv.s(23)
_stdin (_file.o):
    hcat.o                    hcat.s(21)
_stdout (_file.o):
    hcat.o                    hcat.s(22)
_strchr (strchr.o):
    hcat.o                    hcat.s(29)
_strcmp (strcmp.o):
    hconv.o                   hconv.s(25)
_strlen (strlen.o):
    fputs.o                   ../libwrk/apple2/fputs.s(14)
    hcat.o                    hcat.s(30)
_strncpy (strncpy.o):
    hconv.o                   hconv.s(26)
    hcat.o                    hcat.s(31)
_write (write.o):
    fputs.o                   ../libwrk/apple2/fputs.s(15)
addeqysp (addeqsp.o):
    fgets.o                   ../libwrk/apple2/fgets.s(116)
    hconv.o                   hconv.s(6212)
    hconv.o                   hconv.s(6212)
    hconv.o                   hconv.s(6212)
    hconv.o                   hconv.s(6212)
    hconv.o                   hconv.s(6212)
    hconv.o                   hconv.s(6212)
    hconv.o                   hconv.s(6212)
    hcat.o                    hcat.s(2143)
    hcat.o                    hcat.s(2143)
    hcat.o                    hcat.s(2143)
addysp (addysp.o):
    pmemalign.o               ../libwrk/apple2/pmemalign.s(294)
    filename.o                apple2/filename.s(8)
    open.o                    apple2/open.s(14)
    realloc.o                 ../libwrk/apple2/realloc.s(194)
    incsp8.o                  runtime/incsp8.s(8)
    incsp7.o                  runtime/incsp7.s(8)
    incsp6.o                  runtime/incsp6.s(8)
    incsp5.o                  runtime/incsp5.s(8)
    incsp4.o                  runtime/incsp4.s(8)
    incsp3.o                  runtime/incsp3.s(8)
    fgets.o                   ../libwrk/apple2/fgets.s(116)
    hconv.o                   hconv.s(6212)
    hconv.o                   hconv.s(6212)
    hconv.o                   hconv.s(6212)
    hconv.o                   hconv.s(6212)
    hconv.o                   hconv.s(6212)
    hconv.o                   hconv.s(6212)
    hconv.o                   hconv.s(6212)
    hconv.o                   hconv.s(6212)
    hconv.o                   hconv.s(6212)
    hconv.o                   hconv.s(6212)
    hconv.o                   hconv.s(6212)
    hconv.o                   hconv.s(6212)
    hcat.o                    hcat.s(2143)
    hcat.o                    hcat.s(2143)
    hcat.o                    hcat.s(2143)
    hcat.o                    hcat.s(2143)
    hcat.o                    hcat.s(2143)
    hcat.o                    hcat.s(2143)
addysp1 (addysp.o):
    and.o                     runtime/and.s(8)
    sub.o                     runtime/sub.s(8)
    ludiv.o                   runtime/ludiv.s(9)
    lsub.o                    runtime/lsub.s(11)
    lor.o                     runtime/lor.s(9)
    ladd.o                    runtime/ladd.s(8)
aslax1 (aslax1.o):
    hcat.o                    hcat.s(2143)
aslax2 (aslax2.o):
    hconv.o                   hconv.s(6212)
    hconv.o                   hconv.s(6212)
    hconv.o                   hconv.s(6212)
    hconv.o                   hconv.s(6212)
    hconv.o                   hconv.s(6212)
    hconv.o                   hconv.s(6212)
asrax3 (asrax3.o):
    hcat.o                    hcat.s(2143)
aulong (along.o):
    hconv.o                   hconv.s(6212)
    hconv.o                   hconv.s(6212)
    hconv.o                   hconv.s(6212)
axlong (axlong.o):
    hconv.o                   hconv.s(6212)
axulong (axlong.o):
    hconv.o                   hconv.s(6212)
    hconv.o                   hconv.s(6212)
    hconv.o                   hconv.s(6212)
    hcat.o                    hcat.s(2143)
bnegax (bneg.o):
    hconv.o                   hconv.s(6212)
    hconv.o                   hconv.s(6212)
    hconv.o                   hconv.s(6212)
    hconv.o                   hconv.s(6212)
    hconv.o                   hconv.s(6212)
    hconv.o                   hconv.s(6212)
    hconv.o                   hconv.s(6212)
    hconv.o                   hconv.s(6212)
    hconv.o                   hconv.s(6212)
    hconv.o                   hconv.s(6212)
    hconv.o                   hconv.s(6212)
    hconv.o                   hconv.s(6212)
    hcat.o                    hcat.s(2143)
    hcat.o                    hcat.s(2143)
    hcat.o                    hcat.s(2143)
    hcat.o                    hcat.s(2143)
    hcat.o                    hcat.s(2143)
    hcat.o                    hcat.s(2143)
    hcat.o                    hcat.s(2143)
booleq (makebool.o):
    leq.o                     runtime/leq.s(8)
    eq.o                      runtime/eq.s(8)
    hconv.o                   hconv.s(6212)
    hconv.o                   hconv.s(6212)
    hconv.o                   hconv.s(6212)
    hconv.o                   hconv.s(6212)
    hconv.o                   hconv.s(6212)
    hconv.o                   hconv.s(6212)
    hconv.o                   hconv.s(6212)
    hconv.o                   hconv.s(6212)
    hconv.o                   hconv.s(6212)
    hconv.o                   hconv.s(6212)
    hcat.o                    hcat.s(2143)
    hcat.o                    hcat.s(2143)
    hcat.o                    hcat.s(2143)
    hcat.o                    hcat.s(2143)
    hcat.o                    hcat.s(2143)
    hcat.o                    hcat.s(2143)
boolge (makebool.o):
    hconv.o                   hconv.s(6212)
boolne (makebool.o):
    lne.o                     runtime/lne.s(8)
    hconv.o                   hconv.s(6212)
    hconv.o                   hconv.s(6212)
    hconv.o                   hconv.s(6212)
    hconv.o                   hconv.s(6212)
    hconv.o                   hconv.s(6212)
    hcat.o                    hcat.s(2143)
    hcat.o                    hcat.s(2143)
    hcat.o                    hcat.s(2143)
    hcat.o                    hcat.s(2143)
    hcat.o                    hcat.s(2143)
    hcat.o                    hcat.s(2143)
booluge (makebool.o):
    uge.o                     runtime/uge.s(8)
boolugt (makebool.o):
    ugt.o                     runtime/ugt.s(8)
boolule (makebool.o):
    ule.o                     runtime/ule.s(8)
    lule.o                    runtime/lule.s(8)
boolult (makebool.o):
    ult.o                     runtime/ult.s(8)
    hconv.o                   hconv.s(6212)
    hconv.o                   hconv.s(6212)
    hconv.o                   hconv.s(6212)
    hconv.o                   hconv.s(6212)
    hconv.o                   hconv.s(6212)
    hconv.o                   hconv.s(6212)
    hconv.o                   hconv.s(6212)
    hcat.o                    hcat.s(2143)
    hcat.o                    hcat.s(2143)
    hcat.o                    hcat.s(2143)
    hcat.o                    hcat.s(2143)
    hcat.o                    hcat.s(2143)
    hcat.o                    hcat.s(2143)
callmain (callmain.o):
    crt0.o                    apple2/crt0.s(11)
callmli (mli.o):
    filename.o                apple2/mli.inc(131)
    open.o                    apple2/mli.inc(131)
    write.o                   apple2/mli.inc(131)
    rwcommon.o                apple2/mli.inc(131)
closedirect (open.o):
    close.o                   apple2/close.s(9)
complax (compl.o):
    pmemalign.o               ../libwrk/apple2/pmemalign.s(294)
cursor (_cursor.o):
    cgetc.o                   apple2/cgetc.s(10)
decax1 (decax1.o):
    hcat.o                    hcat.s(2143)
decax4 (decax4.o):
    pmemalign.o               ../libwrk/apple2/pmemalign.s(294)
    realloc.o                 ../libwrk/apple2/realloc.s(194)
decsp1 (decsp1.o):
    filename.o                apple2/filename.s(8)
    fgetc.o                   ../libwrk/apple2/fgetc.s(96)
    hcat.o                    hcat.s(2143)
    hcat.o                    hcat.s(2143)
decsp2 (decsp2.o):
    toslong.o                 runtime/toslong.s(8)
    hconv.o                   hconv.s(6212)
    hconv.o                   hconv.s(6212)
    hconv.o                   hconv.s(6212)
    hconv.o                   hconv.s(6212)
    hconv.o                   hconv.s(6212)
    hconv.o                   hconv.s(6212)
    hcat.o                    hcat.s(2143)
    hcat.o                    hcat.s(2143)
    hcat.o                    hcat.s(2143)
    hcat.o                    hcat.s(2143)
    hcat.o                    hcat.s(2143)
    hcat.o                    hcat.s(2143)
decsp4 (decsp4.o):
    lpush.o                   runtime/lpush.s(12)
    fgets.o                   ../libwrk/apple2/fgets.s(116)
    hconv.o                   hconv.s(6212)
    hconv.o                   hconv.s(6212)
    hconv.o                   hconv.s(6212)
    hconv.o                   hconv.s(6212)
    hcat.o                    hcat.s(2143)
decsp6 (decsp6.o):
    pmemalign.o               ../libwrk/apple2/pmemalign.s(294)
    realloc.o                 ../libwrk/apple2/realloc.s(194)
    hconv.o                   hconv.s(6212)
    hconv.o                   hconv.s(6212)
    hconv.o                   hconv.s(6212)
    hcat.o                    hcat.s(2143)
decsp8 (decsp8.o):
    hconv.o                   hconv.s(6212)
    hconv.o                   hconv.s(6212)
    hcat.o                    hcat.s(2143)
    hcat.o                    hcat.s(2143)
donelib (condes.o):
    crt0.o                    apple2/crt0.s(10)
fdtab (filedes.o):
    open.o                    apple2/filedes.inc(13)
    close.o                   apple2/filedes.inc(13)
    write.o                   apple2/filedes.inc(13)
    read.o                    apple2/filedes.inc(13)
freebuffer (open.o):
    close.o                   apple2/close.s(9)
getfd (filedes.o):
    close.o                   apple2/filedes.inc(14)
    rwcommon.o                apple2/filedes.inc(14)
getlop (ludiv.o):
    lumod.o                   runtime/lumod.s(9)
gotoxy (gotoxy.o):
    cputs.o                   conio/cputs.s(9)
    cputc.o                   apple2/cputc.s(13)
incax1 (incax1.o):
    hconv.o                   hconv.s(6212)
    hconv.o                   hconv.s(6212)
    hconv.o                   hconv.s(6212)
    hconv.o                   hconv.s(6212)
    hconv.o                   hconv.s(6212)
    hcat.o                    hcat.s(2143)
    hcat.o                    hcat.s(2143)
    hcat.o                    hcat.s(2143)
incax4 (incaxy.o):
    pmemalign.o               ../libwrk/apple2/pmemalign.s(294)
incaxy (incaxy.o):
    open.o                    apple2/open.s(14)
incsp1 (incsp1.o):
    hconv.o                   hconv.s(6212)
    hconv.o                   hconv.s(6212)
    hconv.o                   hconv.s(6212)
    hconv.o                   hconv.s(6212)
    hconv.o                   hconv.s(6212)
    hconv.o                   hconv.s(6212)
    hcat.o                    hcat.s(2143)
    hcat.o                    hcat.s(2143)
    hcat.o                    hcat.s(2143)
    hcat.o                    hcat.s(2143)
    hcat.o                    hcat.s(2143)
    hcat.o                    hcat.s(2143)
    hcat.o                    hcat.s(2143)
    hcat.o                    hcat.s(2143)
    hcat.o                    hcat.s(2143)
incsp2 (incsp2.o):
    staxspi.o                 runtime/staxspi.s(9)
    staspidx.o                runtime/staspidx.s(8)
    popptr1.o                 runtime/popptr1.s(8)
    hconv.o                   hconv.s(6212)
    hconv.o                   hconv.s(6212)
    hconv.o                   hconv.s(6212)
    hconv.o                   hconv.s(6212)
    hconv.o                   hconv.s(6212)
    hconv.o                   hconv.s(6212)
    hcat.o                    hcat.s(2143)
    hcat.o                    hcat.s(2143)
    hcat.o                    hcat.s(2143)
    hcat.o                    hcat.s(2143)
incsp3 (incsp3.o):
    fgetc.o                   ../libwrk/apple2/fgetc.s(96)
    hconv.o                   hconv.s(6212)
    hconv.o                   hconv.s(6212)
    hcat.o                    hcat.s(2143)
    hcat.o                    hcat.s(2143)
incsp4 (incsp4.o):
    open.o                    apple2/open.s(14)
    lcmp.o                    runtime/lcmp.s(9)
    _fopen.o                  common/_fopen.s(11)
    fputs.o                   ../libwrk/apple2/fputs.s(61)
    hconv.o                   hconv.s(6212)
    hconv.o                   hconv.s(6212)
    hconv.o                   hconv.s(6212)
    hconv.o                   hconv.s(6212)
    hconv.o                   hconv.s(6212)
    hcat.o                    hcat.s(2143)
    hcat.o                    hcat.s(2143)
    hcat.o                    hcat.s(2143)
    hcat.o                    hcat.s(2143)
    hcat.o                    hcat.s(2143)
incsp5 (incsp5.o):
    hconv.o                   hconv.s(6212)
    hcat.o                    hcat.s(2143)
incsp6 (incsp6.o):
    hconv.o                   hconv.s(6212)
    hconv.o                   hconv.s(6212)
    hconv.o                   hconv.s(6212)
    hconv.o                   hconv.s(6212)
    hconv.o                   hconv.s(6212)
    hconv.o                   hconv.s(6212)
    hconv.o                   hconv.s(6212)
    hconv.o                   hconv.s(6212)
    hconv.o                   hconv.s(6212)
    hcat.o                    hcat.s(2143)
    hcat.o                    hcat.s(2143)
incsp7 (incsp7.o):
    hcat.o                    hcat.s(2143)
incsp8 (incsp8.o):
    hconv.o                   hconv.s(6212)
    hconv.o                   hconv.s(6212)
    hconv.o                   hconv.s(6212)
    hcat.o                    hcat.s(2143)
    hcat.o                    hcat.s(2143)
initlib (condes.o):
    crt0.o                    apple2/crt0.s(10)
iobuf_alloc (iobuf.o):
    open.o                    apple2/open.s(13)
iobuf_free (iobuf.o):
    open.o                    apple2/open.s(13)
jmpvec (jmpvec.o):
    hconv.o                   hconv.s(6212)
    hconv.o                   hconv.s(6212)
ldauidx (ldaui.o):
    hconv.o                   hconv.s(6212)
    hconv.o                   hconv.s(6212)
    hconv.o                   hconv.s(6212)
    hconv.o                   hconv.s(6212)
    hconv.o                   hconv.s(6212)
    hconv.o                   hconv.s(6212)
    hcat.o                    hcat.s(2143)
    hcat.o                    hcat.s(2143)
    hcat.o                    hcat.s(2143)
    hcat.o                    hcat.s(2143)
    hcat.o                    hcat.s(2143)
    hcat.o                    hcat.s(2143)
    hcat.o                    hcat.s(2143)
ldax0sp (ldaxsp.o):
    realloc.o                 ../libwrk/apple2/realloc.s(194)
ldaxidx (ldaxi.o):
    pmemalign.o               ../libwrk/apple2/pmemalign.s(294)
    realloc.o                 ../libwrk/apple2/realloc.s(194)
    hconv.o                   hconv.s(6212)
    hconv.o                   hconv.s(6212)
    hconv.o                   hconv.s(6212)
    hconv.o                   hconv.s(6212)
    hconv.o                   hconv.s(6212)
    hconv.o                   hconv.s(6212)
    hconv.o                   hconv.s(6212)
    hconv.o                   hconv.s(6212)
    hconv.o                   hconv.s(6212)
    hconv.o                   hconv.s(6212)
    hconv.o                   hconv.s(6212)
ldaxysp (ldaxsp.o):
    pmemalign.o               ../libwrk/apple2/pmemalign.s(294)
    realloc.o                 ../libwrk/apple2/realloc.s(194)
    fputs.o                   ../libwrk/apple2/fputs.s(61)
    fgets.o                   ../libwrk/apple2/fgets.s(116)
    hconv.o                   hconv.s(6212)
    hconv.o                   hconv.s(6212)
    hconv.o                   hconv.s(6212)
    hconv.o                   hconv.s(6212)
    hconv.o                   hconv.s(6212)
    hconv.o                   hconv.s(6212)
    hconv.o                   hconv.s(6212)
    hconv.o                   hconv.s(6212)
    hconv.o                   hconv.s(6212)
    hconv.o                   hconv.s(6212)
    hconv.o                   hconv.s(6212)
    hconv.o                   hconv.s(6212)
    hconv.o                   hconv.s(6212)
    hconv.o                   hconv.s(6212)
    hconv.o                   hconv.s(6212)
    hconv.o                   hconv.s(6212)
    hconv.o                   hconv.s(6212)
    hconv.o                   hconv.s(6212)
    hconv.o                   hconv.s(6212)
    hconv.o                   hconv.s(6212)
    hconv.o                   hconv.s(6212)
    hconv.o                   hconv.s(6212)
    hconv.o                   hconv.s(6212)
    hconv.o                   hconv.s(6212)
    hconv.o                   hconv.s(6212)
    hconv.o                   hconv.s(6212)
    hconv.o                   hconv.s(6212)
    hconv.o                   hconv.s(6212)
    hconv.o                   hconv.s(6212)
    hcat.o                    hcat.s(2143)
    hcat.o                    hcat.s(2143)
    hcat.o                    hcat.s(2143)
    hcat.o                    hcat.s(2143)
    hcat.o                    hcat.s(2143)
    hcat.o                    hcat.s(2143)
    hcat.o                    hcat.s(2143)
    hcat.o                    hcat.s(2143)
    hcat.o                    hcat.s(2143)
    hcat.o                    hcat.s(2143)
    hcat.o                    hcat.s(2143)
    hcat.o                    hcat.s(2143)
    hcat.o                    hcat.s(2143)
    hcat.o                    hcat.s(2143)
    hcat.o                    hcat.s(2143)
    hcat.o                    hcat.s(2143)
    hcat.o                    hcat.s(2143)
    hcat.o                    hcat.s(2143)
ldeaxidx (ldeaxi.o):
    hconv.o                   hconv.s(6212)
    hconv.o                   hconv.s(6212)
    hconv.o                   hconv.s(6212)
    hconv.o                   hconv.s(6212)
    hconv.o                   hconv.s(6212)
    hconv.o                   hconv.s(6212)
    hconv.o                   hconv.s(6212)
ldeaxysp (ldeaxysp.o):
    hconv.o                   hconv.s(6212)
    hconv.o                   hconv.s(6212)
    hconv.o                   hconv.s(6212)
    hconv.o                   hconv.s(6212)
    hconv.o                   hconv.s(6212)
    hconv.o                   hconv.s(6212)
    hconv.o                   hconv.s(6212)
    hconv.o                   hconv.s(6212)
    hconv.o                   hconv.s(6212)
    hconv.o                   hconv.s(6212)
    hconv.o                   hconv.s(6212)
    hconv.o                   hconv.s(6212)
    hconv.o                   hconv.s(6212)
    hconv.o                   hconv.s(6212)
    hcat.o                    hcat.s(2143)
    hcat.o                    hcat.s(2143)
    hcat.o                    hcat.s(2143)
    hcat.o                    hcat.s(2143)
leaa0sp (leaaxsp.o):
    fgetc.o                   ../libwrk/apple2/fgetc.s(96)
    hconv.o                   hconv.s(6212)
    hconv.o                   hconv.s(6212)
    hconv.o                   hconv.s(6212)
    hconv.o                   hconv.s(6212)
    hconv.o                   hconv.s(6212)
    hcat.o                    hcat.s(2143)
    hcat.o                    hcat.s(2143)
    hcat.o                    hcat.s(2143)
    hcat.o                    hcat.s(2143)
mliparam (mli.o):
    filename.o                apple2/mli.inc(130)
    open.o                    apple2/mli.inc(130)
    write.o                   apple2/mli.inc(130)
    rwcommon.o                apple2/mli.inc(130)
mul8x16 (mul8.o):
    mul.o                     runtime/mul.s(8)
mul8x16a (mul8.o):
    mul.o                     runtime/mul.s(8)
mulax3 (mulax3.o):
    hcat.o                    hcat.s(2143)
popa (popa.o):
    gotoxy.o                  apple2/gotoxy.s(9)
popax (incsp2.o):
    open.o                    apple2/open.s(14)
    strncpy.o                 common/strncpy.s(8)
    strchr.o                  common/strchr.s(9)
    rwcommon.o                apple2/rwcommon.s(6)
    memcpy.o                  common/memcpy.s(14)
popname (filename.o):
    open.o                    apple2/open.s(12)
popptr1 (popptr1.o):
    strncpy.o                 common/strncpy.s(8)
    strcmp.o                  common/strcmp.s(8)
    steaxspi.o                runtime/steaxspi.s(9)
    rwcommon.o                apple2/rwcommon.s(6)
    mul8.o                    runtime/mul8.s(9)
    mul.o                     runtime/mul.s(9)
    memcpy.o                  common/memcpy.s(14)
ptr1 (zeropage.o):
    pmemalign.o               ../libwrk/apple2/pmemalign.s(11)
    filename.o                /build/cc65-5FfAbq/cc65-2.19/asminc/zeropage.inc(12)
    lcmp.o                    runtime/lcmp.s(10)
    _fopen.o                  common/_fopen.s(12)
    zerobss.o                 common/zerobss.s(9)
    write.o                   /build/cc65-5FfAbq/cc65-2.19/asminc/zeropage.inc(12)
    strncpy.o                 common/strncpy.s(9)
    strcmp.o                  common/strcmp.s(9)
    strchr.o                  common/strchr.s(10)
    steaxspi.o                runtime/steaxspi.s(10)
    staxspi.o                 runtime/staxspi.s(10)
    staspidx.o                runtime/staspidx.s(9)
    rwcommon.o                /build/cc65-5FfAbq/cc65-2.19/asminc/zeropage.inc(12)
    read.o                    /build/cc65-5FfAbq/cc65-2.19/asminc/zeropage.inc(12)
    popptr1.o                 runtime/popptr1.s(9)
    mulax3.o                  runtime/mulax3.s(9)
    mul8.o                    runtime/mul8.s(10)
    mul.o                     runtime/mul.s(10)
    memcpy.o                  common/memcpy.s(15)
    malloc.o                  common/malloc.s(108)
    ludiv.o                   runtime/ludiv.s(10)
    ldeaxi.o                  runtime/ldeaxi.s(8)
    ldaxi.o                   runtime/ldaxi.s(8)
    ldaui.o                   runtime/ldaui.s(8)
    free.o                    common/free.s(62)
    fmisc.o                   common/fmisc.s(9)
    fclose.o                  common/fclose.s(11)
    cputs.o                   conio/cputs.s(10)
    hconv.o                   hconv.s(11)
ptr2 (zeropage.o):
    write.o                   /build/cc65-5FfAbq/cc65-2.19/asminc/zeropage.inc(12)
    strncpy.o                 common/strncpy.s(9)
    strlen.o                  common/strlen.s(12)
    strcmp.o                  common/strcmp.s(9)
    rwcommon.o                /build/cc65-5FfAbq/cc65-2.19/asminc/zeropage.inc(12)
    read.o                    /build/cc65-5FfAbq/cc65-2.19/asminc/zeropage.inc(12)
    memcpy.o                  common/memcpy.s(15)
    malloc.o                  common/malloc.s(108)
    lumod.o                   runtime/lumod.s(10)
    ludiv.o                   runtime/ludiv.s(10)
    free.o                    common/free.s(62)
ptr3 (zeropage.o):
    read.o                    /build/cc65-5FfAbq/cc65-2.19/asminc/zeropage.inc(12)
    memcpy.o                  common/memcpy.s(15)
    malloc.o                  common/malloc.s(108)
    ludiv.o                   runtime/ludiv.s(10)
    free.o                    common/free.s(62)
ptr4 (zeropage.o):
    mul8.o                    runtime/mul8.s(10)
    mul.o                     runtime/mul.s(10)
    ludiv.o                   runtime/ludiv.s(10)
    free.o                    common/free.s(62)
pusha (pusha.o):
    hconv.o                   hconv.s(6212)
    hconv.o                   hconv.s(6212)
    hconv.o                   hconv.s(6212)
    hconv.o                   hconv.s(6212)
    hconv.o                   hconv.s(6212)
    hconv.o                   hconv.s(6212)
    hconv.o                   hconv.s(6212)
    hconv.o                   hconv.s(6212)
    hconv.o                   hconv.s(6212)
    hconv.o                   hconv.s(6212)
    hconv.o                   hconv.s(6212)
    hconv.o                   hconv.s(6212)
    hcat.o                    hcat.s(2143)
    hcat.o                    hcat.s(2143)
    hcat.o                    hcat.s(2143)
    hcat.o                    hcat.s(2143)
    hcat.o                    hcat.s(2143)
    hcat.o                    hcat.s(2143)
    hcat.o                    hcat.s(2143)
    hcat.o                    hcat.s(2143)
    hcat.o                    hcat.s(2143)
    hcat.o                    hcat.s(2143)
    hcat.o                    hcat.s(2143)
    hcat.o                    hcat.s(2143)
    hcat.o                    hcat.s(2143)
    hcat.o                    hcat.s(2143)
    hcat.o                    hcat.s(2143)
    hcat.o                    hcat.s(2143)
pusha0 (pushax.o):
    fputs.o                   ../libwrk/apple2/fputs.s(61)
    fgetc.o                   ../libwrk/apple2/fgetc.s(96)
pushax (pushax.o):
    pmemalign.o               ../libwrk/apple2/pmemalign.s(294)
    open.o                    apple2/open.s(14)
    callmain.o                runtime/callmain.s(11)
    realloc.o                 ../libwrk/apple2/realloc.s(194)
    fputs.o                   ../libwrk/apple2/fputs.s(61)
    fopen.o                   common/fopen.s(11)
    fgets.o                   ../libwrk/apple2/fgets.s(116)
    fgetc.o                   ../libwrk/apple2/fgetc.s(96)
    hconv.o                   hconv.s(6212)
    hconv.o                   hconv.s(6212)
    hconv.o                   hconv.s(6212)
    hconv.o                   hconv.s(6212)
    hconv.o                   hconv.s(6212)
    hconv.o                   hconv.s(6212)
    hconv.o                   hconv.s(6212)
    hconv.o                   hconv.s(6212)
    hconv.o                   hconv.s(6212)
    hconv.o                   hconv.s(6212)
    hconv.o                   hconv.s(6212)
    hconv.o                   hconv.s(6212)
    hconv.o                   hconv.s(6212)
    hconv.o                   hconv.s(6212)
    hconv.o                   hconv.s(6212)
    hconv.o                   hconv.s(6212)
    hconv.o                   hconv.s(6212)
    hconv.o                   hconv.s(6212)
    hconv.o                   hconv.s(6212)
    hconv.o                   hconv.s(6212)
    hconv.o                   hconv.s(6212)
    hconv.o                   hconv.s(6212)
    hconv.o                   hconv.s(6212)
    hconv.o                   hconv.s(6212)
    hconv.o                   hconv.s(6212)
    hconv.o                   hconv.s(6212)
    hconv.o                   hconv.s(6212)
    hconv.o                   hconv.s(6212)
    hconv.o                   hconv.s(6212)
    hcat.o                    hcat.s(2143)
    hcat.o                    hcat.s(2143)
    hcat.o                    hcat.s(2143)
    hcat.o                    hcat.s(2143)
    hcat.o                    hcat.s(2143)
    hcat.o                    hcat.s(2143)
    hcat.o                    hcat.s(2143)
    hcat.o                    hcat.s(2143)
    hcat.o                    hcat.s(2143)
    hcat.o                    hcat.s(2143)
    hcat.o                    hcat.s(2143)
    hcat.o                    hcat.s(2143)
    hcat.o                    hcat.s(2143)
    hcat.o                    hcat.s(2143)
    hcat.o                    hcat.s(2143)
    hcat.o                    hcat.s(2143)
    hcat.o                    hcat.s(2143)
    hcat.o                    hcat.s(2143)
    hcat.o                    hcat.s(2143)
    hcat.o                    hcat.s(2143)
    hcat.o                    hcat.s(2143)
    hcat.o                    hcat.s(2143)
    hcat.o                    hcat.s(2143)
    hcat.o                    hcat.s(2143)
pusheax (lpush.o):
    hconv.o                   hconv.s(6212)
    hconv.o                   hconv.s(6212)
    hconv.o                   hconv.s(6212)
    hconv.o                   hconv.s(6212)
    hconv.o                   hconv.s(6212)
    hconv.o                   hconv.s(6212)
    hconv.o                   hconv.s(6212)
    hconv.o                   hconv.s(6212)
    hconv.o                   hconv.s(6212)
    hconv.o                   hconv.s(6212)
    hconv.o                   hconv.s(6212)
    hconv.o                   hconv.s(6212)
    hconv.o                   hconv.s(6212)
    hconv.o                   hconv.s(6212)
    hcat.o                    hcat.s(2143)
    hcat.o                    hcat.s(2143)
    hcat.o                    hcat.s(2143)
    hcat.o                    hcat.s(2143)
pushname (filename.o):
    open.o                    apple2/open.s(12)
pushwysp (pushwsp.o):
    pmemalign.o               ../libwrk/apple2/pmemalign.s(294)
    realloc.o                 ../libwrk/apple2/realloc.s(194)
    fputs.o                   ../libwrk/apple2/fputs.s(61)
putchardirect (cputc.o):
    cgetc.o                   apple2/cgetc.s(10)
regbank (zeropage.o):
    pmemalign.o               ../libwrk/apple2/pmemalign.s(10)
    regswap2.o                runtime/regswap2.s(8)
    realloc.o                 ../libwrk/apple2/realloc.s(10)
    fputs.o                   ../libwrk/apple2/fputs.s(10)
    fgets.o                   ../libwrk/apple2/fgets.s(10)
    fgetc.o                   ../libwrk/apple2/fgetc.s(10)
regsave (zeropage.o):
    hconv.o                   hconv.s(10)
regswap2 (regswap2.o):
    realloc.o                 ../libwrk/apple2/realloc.s(194)
    fputs.o                   ../libwrk/apple2/fputs.s(61)
    fgets.o                   ../libwrk/apple2/fgets.s(116)
    fgetc.o                   ../libwrk/apple2/fgetc.s(96)
return0 (return0.o):
    _fopen.o                  common/_fopen.s(11)
    _fdesc.o                  common/_fdesc.s(9)
    ult.o                     runtime/ult.s(8)
    fmisc.o                   common/fmisc.s(8)
rwcommon (rwcommon.o):
    write.o                   apple2/write.s(8)
    read.o                    apple2/read.s(9)
rwepilog (rwcommon.o):
    write.o                   apple2/write.s(8)
rwprolog (rwcommon.o):
    write.o                   apple2/write.s(8)
    read.o                    apple2/read.s(9)
shlax1 (aslax1.o):
    hconv.o                   hconv.s(6212)
    hconv.o                   hconv.s(6212)
shlax2 (aslax2.o):
    hconv.o                   hconv.s(6212)
shlax3 (aslax3.o):
    hcat.o                    hcat.s(2143)
shlax4 (aslax4.o):
    hcat.o                    hcat.s(2143)
shleax2 (asleax2.o):
    hconv.o                   hconv.s(6212)
    hcat.o                    hcat.s(2143)
shleax4 (asleax4.o):
    hconv.o                   hconv.s(6212)
    hcat.o                    hcat.s(2143)
shreax2 (shreax2.o):
    hconv.o                   hconv.s(6212)
shreax4 (shreax4.o):
    hconv.o                   hconv.s(6212)
sp (zeropage.o):
    and.o                     runtime/and.s(9)
    sub.o                     runtime/sub.s(9)
    pmemalign.o               ../libwrk/apple2/pmemalign.s(10)
    filename.o                /build/cc65-5FfAbq/cc65-2.19/asminc/zeropage.inc(11)
    open.o                    /build/cc65-5FfAbq/cc65-2.19/asminc/zeropage.inc(11)
    lcmp.o                    runtime/lcmp.s(10)
    _heap.o                   common/_heap.s(9)
    _fopen.o                  common/_fopen.s(12)
    toslong.o                 runtime/toslong.s(9)
    subysp.o                  runtime/subysp.s(9)
    subeqsp.o                 runtime/subeqsp.s(8)
    steaxsp.o                 runtime/steaxsp.s(8)
    staxspi.o                 runtime/staxspi.s(10)
    staxsp.o                  runtime/staxsp.s(8)
    staspidx.o                runtime/staspidx.s(9)
    regswap2.o                runtime/regswap2.s(8)
    realloc.o                 ../libwrk/apple2/realloc.s(10)
    pushwsp.o                 runtime/pushwsp.s(8)
    pushax.o                  runtime/pushax.s(8)
    pusha.o                   runtime/pusha.s(8)
    popptr1.o                 runtime/popptr1.s(9)
    popa.o                    runtime/popa.s(8)
    memcpy.o                  common/memcpy.s(15)
    ludiv.o                   runtime/ludiv.s(10)
    lsub.o                    runtime/lsub.s(12)
    lpush.o                   runtime/lpush.s(13)
    lor.o                     runtime/lor.s(10)
    leaaxsp.o                 runtime/leaaxsp.s(8)
    ldeaxysp.o                runtime/ldeaxysp.s(12)
    ldaxsp.o                  runtime/ldaxsp.s(8)
    ladd.o                    runtime/ladd.s(9)
    incsp2.o                  runtime/incsp2.s(8)
    incsp1.o                  runtime/incsp1.s(8)
    icmp.o                    runtime/icmp.s(9)
    fputs.o                   ../libwrk/apple2/fputs.s(10)
    fgets.o                   ../libwrk/apple2/fgets.s(10)
    fgetc.o                   ../libwrk/apple2/fgetc.s(10)
    decsp8.o                  runtime/decsp8.s(8)
    decsp6.o                  runtime/decsp6.s(8)
    decsp4.o                  runtime/decsp4.s(8)
    decsp2.o                  runtime/decsp2.s(8)
    decsp1.o                  runtime/decsp1.s(8)
    crt0.o                    /build/cc65-5FfAbq/cc65-2.19/asminc/zeropage.inc(11)
    addysp.o                  runtime/addysp.s(8)
    addeqsp.o                 runtime/addeqsp.s(8)
    add.o                     runtime/add.s(12)
    hconv.o                   hconv.s(10)
    hcat.o                    hcat.s(10)
sreg (zeropage.o):
    lcmp.o                    runtime/lcmp.s(10)
    steaxspi.o                runtime/steaxspi.s(10)
    steaxsp.o                 runtime/steaxsp.s(8)
    shreax4.o                 runtime/shreax4.s(8)
    shreax2.o                 runtime/shreax2.s(8)
    lumod.o                   runtime/lumod.s(10)
    ludiv.o                   runtime/ludiv.s(10)
    ltest.o                   runtime/ltest.s(8)
    lsub.o                    runtime/lsub.s(12)
    lpush.o                   runtime/lpush.s(13)
    lor.o                     runtime/lor.s(10)
    ldeaxysp.o                runtime/ldeaxysp.s(12)
    ldeaxi.o                  runtime/ldeaxi.s(8)
    ladd.o                    runtime/ladd.s(9)
    icmp.o                    runtime/icmp.s(9)
    axlong.o                  runtime/axlong.s(9)
    asleax4.o                 runtime/asleax4.s(8)
    asleax2.o                 runtime/asleax2.s(8)
    along.o                   runtime/along.s(9)
    hconv.o                   hconv.s(10)
    hcat.o                    hcat.s(10)
staspidx (staspidx.o):
    hconv.o                   hconv.s(6212)
    hconv.o                   hconv.s(6212)
    hconv.o                   hconv.s(6212)
    hconv.o                   hconv.s(6212)
    hconv.o                   hconv.s(6212)
    hcat.o                    hcat.s(2143)
    hcat.o                    hcat.s(2143)
    hcat.o                    hcat.s(2143)
    hcat.o                    hcat.s(2143)
    hcat.o                    hcat.s(2143)
    hcat.o                    hcat.s(2143)
stax0sp (staxsp.o):
    realloc.o                 ../libwrk/apple2/realloc.s(194)
    fgets.o                   ../libwrk/apple2/fgets.s(116)
staxspidx (staxspi.o):
    pmemalign.o               ../libwrk/apple2/pmemalign.s(294)
    hconv.o                   hconv.s(6212)
    hconv.o                   hconv.s(6212)
    hconv.o                   hconv.s(6212)
    hconv.o                   hconv.s(6212)
    hconv.o                   hconv.s(6212)
    hconv.o                   hconv.s(6212)
    hconv.o                   hconv.s(6212)
    hconv.o                   hconv.s(6212)
    hconv.o                   hconv.s(6212)
    hconv.o                   hconv.s(6212)
    hconv.o                   hconv.s(6212)
staxysp (staxsp.o):
    pmemalign.o               ../libwrk/apple2/pmemalign.s(294)
    realloc.o                 ../libwrk/apple2/realloc.s(194)
    fgets.o                   ../libwrk/apple2/fgets.s(116)
    hconv.o                   hconv.s(6212)
    hconv.o                   hconv.s(6212)
    hconv.o                   hconv.s(6212)
    hconv.o                   hconv.s(6212)
    hconv.o                   hconv.s(6212)
    hconv.o                   hconv.s(6212)
    hconv.o                   hconv.s(6212)
    hconv.o                   hconv.s(6212)
    hconv.o                   hconv.s(6212)
    hconv.o                   hconv.s(6212)
    hconv.o                   hconv.s(6212)
    hconv.o                   hconv.s(6212)
    hcat.o                    hcat.s(2143)
    hcat.o                    hcat.s(2143)
    hcat.o                    hcat.s(2143)
    hcat.o                    hcat.s(2143)
    hcat.o                    hcat.s(2143)
    hcat.o                    hcat.s(2143)
    hcat.o                    hcat.s(2143)
    hcat.o                    hcat.s(2143)
steaxspidx (steaxspi.o):
    hconv.o                   hconv.s(6212)
    hconv.o                   hconv.s(6212)
    hconv.o                   hconv.s(6212)
    hconv.o                   hconv.s(6212)
    hconv.o                   hconv.s(6212)
    hconv.o                   hconv.s(6212)
    hconv.o                   hconv.s(6212)
    hcat.o                    hcat.s(2143)
steaxysp (steaxsp.o):
    hconv.o                   hconv.s(6212)
    hconv.o                   hconv.s(6212)
    hconv.o                   hconv.s(6212)
    hconv.o                   hconv.s(6212)
    hcat.o                    hcat.s(2143)
subeqysp (subeqsp.o):
    pmemalign.o               ../libwrk/apple2/pmemalign.s(294)
    realloc.o                 ../libwrk/apple2/realloc.s(194)
    fgets.o                   ../libwrk/apple2/fgets.s(116)
    hcat.o                    hcat.s(2143)
subysp (subysp.o):
    filename.o                apple2/filename.s(8)
    hconv.o                   hconv.s(6212)
    hconv.o                   hconv.s(6212)
    hconv.o                   hconv.s(6212)
    hcat.o                    hcat.s(2143)
tmp1 (zeropage.o):
    incaxy.o                  runtime/incaxy.s(8)
    filename.o                /build/cc65-5FfAbq/cc65-2.19/asminc/zeropage.inc(13)
    open.o                    /build/cc65-5FfAbq/cc65-2.19/asminc/zeropage.inc(13)
    strncpy.o                 common/strncpy.s(9)
    strchr.o                  common/strchr.s(10)
    steaxspi.o                runtime/steaxspi.s(10)
    staxspi.o                 runtime/staxspi.s(10)
    staspidx.o                runtime/staspidx.s(9)
    shreax4.o                 runtime/shreax4.s(8)
    shreax2.o                 runtime/shreax2.s(8)
    realloc.o                 ../libwrk/apple2/realloc.s(11)
    mul.o                     runtime/mul.s(10)
    ltest.o                   runtime/ltest.s(8)
    lor.o                     runtime/lor.s(10)
    ladd.o                    runtime/ladd.s(9)
    fgets.o                   ../libwrk/apple2/fgets.s(11)
    cputs.o                   conio/cputs.s(10)
    asrax3.o                  runtime/asrax3.s(9)
    asleax4.o                 runtime/asleax4.s(8)
    asleax2.o                 runtime/asleax2.s(8)
    aslax4.o                  runtime/aslax4.s(8)
    aslax3.o                  runtime/aslax3.s(8)
    aslax2.o                  runtime/aslax2.s(8)
    aslax1.o                  runtime/aslax1.s(8)
    add.o                     runtime/add.s(12)
    hconv.o                   hconv.s(11)
    hcat.o                    hcat.s(11)
tmp2 (zeropage.o):
    open.o                    /build/cc65-5FfAbq/cc65-2.19/asminc/zeropage.inc(13)
    strncpy.o                 common/strncpy.s(9)
    steaxspi.o                runtime/steaxspi.s(10)
tmp3 (zeropage.o):
    open.o                    /build/cc65-5FfAbq/cc65-2.19/asminc/zeropage.inc(13)
    strncpy.o                 common/strncpy.s(9)
    steaxspi.o                runtime/steaxspi.s(10)
    lumod.o                   runtime/lumod.s(10)
    ludiv.o                   runtime/ludiv.s(10)
tmp4 (zeropage.o):
    lumod.o                   runtime/lumod.s(10)
    ludiv.o                   runtime/ludiv.s(10)
tosaddax (add.o):
    hconv.o                   hconv.s(6212)
    hconv.o                   hconv.s(6212)
    hconv.o                   hconv.s(6212)
    hconv.o                   hconv.s(6212)
    hconv.o                   hconv.s(6212)
    hconv.o                   hconv.s(6212)
    hconv.o                   hconv.s(6212)
    hconv.o                   hconv.s(6212)
    hconv.o                   hconv.s(6212)
    hconv.o                   hconv.s(6212)
    hconv.o                   hconv.s(6212)
    hconv.o                   hconv.s(6212)
    hcat.o                    hcat.s(2143)
    hcat.o                    hcat.s(2143)
    hcat.o                    hcat.s(2143)
    hcat.o                    hcat.s(2143)
    hcat.o                    hcat.s(2143)
    hcat.o                    hcat.s(2143)
    hcat.o                    hcat.s(2143)
    hcat.o                    hcat.s(2143)
    hcat.o                    hcat.s(2143)
    hcat.o                    hcat.s(2143)
    hcat.o                    hcat.s(2143)
tosaddeax (ladd.o):
    hconv.o                   hconv.s(6212)
    hconv.o                   hconv.s(6212)
tosandax (and.o):
    pmemalign.o               ../libwrk/apple2/pmemalign.s(294)
toseqax (eq.o):
    hconv.o                   hconv.s(6212)
    hcat.o                    hcat.s(2143)
    hcat.o                    hcat.s(2143)
toseqeax (leq.o):
    hconv.o                   hconv.s(6212)
    hcat.o                    hcat.s(2143)
tosicmp (icmp.o):
    ult.o                     runtime/ult.s(8)
    ule.o                     runtime/ule.s(8)
    ugt.o                     runtime/ugt.s(8)
    uge.o                     runtime/uge.s(8)
    eq.o                      runtime/eq.s(8)
toslcmp (lcmp.o):
    lule.o                    runtime/lule.s(8)
    lne.o                     runtime/lne.s(8)
    leq.o                     runtime/leq.s(8)
tosmulax (mul.o):
    hconv.o                   hconv.s(6212)
tosneeax (lne.o):
    hconv.o                   hconv.s(6212)
tosoreax (lor.o):
    hconv.o                   hconv.s(6212)
    hconv.o                   hconv.s(6212)
    hcat.o                    hcat.s(2143)
tossubax (sub.o):
    pmemalign.o               ../libwrk/apple2/pmemalign.s(294)
tossubeax (lsub.o):
    hconv.o                   hconv.s(6212)
    hconv.o                   hconv.s(6212)
    hconv.o                   hconv.s(6212)
tosudiveax (ludiv.o):
    hconv.o                   hconv.s(6212)
tosugeax (uge.o):
    hcat.o                    hcat.s(2143)
tosugtax (ugt.o):
    hconv.o                   hconv.s(6212)
tosuleax (ule.o):
    hconv.o                   hconv.s(6212)
    hconv.o                   hconv.s(6212)
tosuleeax (lule.o):
    hconv.o                   hconv.s(6212)
    hconv.o                   hconv.s(6212)
    hconv.o                   hconv.s(6212)
    hconv.o                   hconv.s(6212)
tosulong (toslong.o):
    hconv.o                   hconv.s(6212)
    hconv.o                   hconv.s(6212)
    hconv.o                   hconv.s(6212)
    hconv.o                   hconv.s(6212)
tosultax (ult.o):
    hconv.o                   hconv.s(6212)
    hconv.o                   hconv.s(6212)
    hconv.o                   hconv.s(6212)
    hconv.o                   hconv.s(6212)
    hconv.o                   hconv.s(6212)
    hconv.o                   hconv.s(6212)
    hconv.o                   hconv.s(6212)
    hconv.o                   hconv.s(6212)
    hconv.o                   hconv.s(6212)
    hcat.o                    hcat.s(2143)
    hcat.o                    hcat.s(2143)
    hcat.o                    hcat.s(2143)
tosumodeax (lumod.o):
    hconv.o                   hconv.s(6212)
tosumulax (mul.o):
    hcat.o                    hcat.s(2143)
    hcat.o                    hcat.s(2143)
udiv32 (ludiv.o):
    lumod.o                   runtime/lumod.s(9)
utsteax (ltest.o):
    hconv.o                   hconv.s(6212)
zerobss (zerobss.o):
    crt0.o                    apple2/crt0.s(11)

